
Game_Borges_Invaders_STM32F103C8.elf:     file format elf32-littlearm

Sections:
Idx Name          Size      VMA       LMA       File off  Algn
  0 .isr_vector   0000010c  08000000  08000000  00010000  2**0
                  CONTENTS, ALLOC, LOAD, READONLY, DATA
  1 .text         00003938  08000110  08000110  00010110  2**4
                  CONTENTS, ALLOC, LOAD, READONLY, CODE
  2 .rodata       000005e4  08003a48  08003a48  00013a48  2**2
                  CONTENTS, ALLOC, LOAD, READONLY, DATA
  3 .ARM.extab    00000000  0800402c  0800402c  00020228  2**0
                  CONTENTS
  4 .ARM          00000000  0800402c  0800402c  00020228  2**0
                  CONTENTS
  5 .preinit_array 00000000  0800402c  0800402c  00020228  2**0
                  CONTENTS, ALLOC, LOAD, DATA
  6 .init_array   00000004  0800402c  0800402c  0001402c  2**2
                  CONTENTS, ALLOC, LOAD, DATA
  7 .fini_array   00000004  08004030  08004030  00014030  2**2
                  CONTENTS, ALLOC, LOAD, DATA
  8 .data         00000228  20000000  08004034  00020000  2**2
                  CONTENTS, ALLOC, LOAD, DATA
  9 .bss          000039c8  20000228  0800425c  00020228  2**3
                  ALLOC
 10 ._user_heap_stack 00000600  20003bf0  0800425c  00023bf0  2**0
                  ALLOC
 11 .ARM.attributes 00000029  00000000  00000000  00020228  2**0
                  CONTENTS, READONLY
 12 .comment      00000043  00000000  00000000  00020251  2**0
                  CONTENTS, READONLY
 13 .debug_frame  00000350  00000000  00000000  00020294  2**2
                  CONTENTS, READONLY, DEBUGGING, OCTETS

Disassembly of section .text:

08000110 <__do_global_dtors_aux>:
 8000110:	b510      	push	{r4, lr}
 8000112:	4c05      	ldr	r4, [pc, #20]	; (8000128 <__do_global_dtors_aux+0x18>)
 8000114:	7823      	ldrb	r3, [r4, #0]
 8000116:	b933      	cbnz	r3, 8000126 <__do_global_dtors_aux+0x16>
 8000118:	4b04      	ldr	r3, [pc, #16]	; (800012c <__do_global_dtors_aux+0x1c>)
 800011a:	b113      	cbz	r3, 8000122 <__do_global_dtors_aux+0x12>
 800011c:	4804      	ldr	r0, [pc, #16]	; (8000130 <__do_global_dtors_aux+0x20>)
 800011e:	f3af 8000 	nop.w
 8000122:	2301      	movs	r3, #1
 8000124:	7023      	strb	r3, [r4, #0]
 8000126:	bd10      	pop	{r4, pc}
 8000128:	20000228 	.word	0x20000228
 800012c:	00000000 	.word	0x00000000
 8000130:	08003a30 	.word	0x08003a30

08000134 <frame_dummy>:
 8000134:	b508      	push	{r3, lr}
 8000136:	4b03      	ldr	r3, [pc, #12]	; (8000144 <frame_dummy+0x10>)
 8000138:	b11b      	cbz	r3, 8000142 <frame_dummy+0xe>
 800013a:	4903      	ldr	r1, [pc, #12]	; (8000148 <frame_dummy+0x14>)
 800013c:	4803      	ldr	r0, [pc, #12]	; (800014c <frame_dummy+0x18>)
 800013e:	f3af 8000 	nop.w
 8000142:	bd08      	pop	{r3, pc}
 8000144:	00000000 	.word	0x00000000
 8000148:	2000022c 	.word	0x2000022c
 800014c:	08003a30 	.word	0x08003a30

08000150 <cmd_LCD>:
 8000150:	e92d 41f0 	stmdb	sp!, {r4, r5, r6, r7, r8, lr}
 8000154:	4607      	mov	r7, r0
 8000156:	481e      	ldr	r0, [pc, #120]	; (80001d0 <cmd_LCD+0x80>)
 8000158:	2200      	movs	r2, #0
 800015a:	4606      	mov	r6, r0
 800015c:	2120      	movs	r1, #32
 800015e:	f002 f819 	bl	8002194 <HAL_GPIO_WritePin>
 8000162:	2200      	movs	r2, #0
 8000164:	2140      	movs	r1, #64	; 0x40
 8000166:	4630      	mov	r0, r6
 8000168:	2508      	movs	r5, #8
 800016a:	f04f 0801 	mov.w	r8, #1
 800016e:	f002 f811 	bl	8002194 <HAL_GPIO_WritePin>
 8000172:	e015      	b.n	80001a0 <cmd_LCD+0x50>
 8000174:	2201      	movs	r2, #1
 8000176:	2110      	movs	r1, #16
 8000178:	4630      	mov	r0, r6
 800017a:	f002 f80b 	bl	8002194 <HAL_GPIO_WritePin>
 800017e:	2001      	movs	r0, #1
 8000180:	f000 fc4a 	bl	8000a18 <atraso_us>
 8000184:	2201      	movs	r2, #1
 8000186:	2108      	movs	r1, #8
 8000188:	4630      	mov	r0, r6
 800018a:	f002 f803 	bl	8002194 <HAL_GPIO_WritePin>
 800018e:	2001      	movs	r0, #1
 8000190:	f000 fc42 	bl	8000a18 <atraso_us>
 8000194:	2200      	movs	r2, #0
 8000196:	2108      	movs	r1, #8
 8000198:	4630      	mov	r0, r6
 800019a:	f001 fffb 	bl	8002194 <HAL_GPIO_WritePin>
 800019e:	b185      	cbz	r5, 80001c2 <cmd_LCD+0x72>
 80001a0:	3d01      	subs	r5, #1
 80001a2:	fa08 f205 	lsl.w	r2, r8, r5
 80001a6:	ea12 0407 	ands.w	r4, r2, r7
 80001aa:	d1e3      	bne.n	8000174 <cmd_LCD+0x24>
 80001ac:	4622      	mov	r2, r4
 80001ae:	2110      	movs	r1, #16
 80001b0:	4630      	mov	r0, r6
 80001b2:	f001 ffef 	bl	8002194 <HAL_GPIO_WritePin>
 80001b6:	2001      	movs	r0, #1
 80001b8:	f000 fc2e 	bl	8000a18 <atraso_us>
 80001bc:	2108      	movs	r1, #8
 80001be:	2201      	movs	r2, #1
 80001c0:	e7e2      	b.n	8000188 <cmd_LCD+0x38>
 80001c2:	2201      	movs	r2, #1
 80001c4:	e8bd 41f0 	ldmia.w	sp!, {r4, r5, r6, r7, r8, lr}
 80001c8:	2140      	movs	r1, #64	; 0x40
 80001ca:	4801      	ldr	r0, [pc, #4]	; (80001d0 <cmd_LCD+0x80>)
 80001cc:	f001 bfe2 	b.w	8002194 <HAL_GPIO_WritePin>
 80001d0:	40010800 	.word	0x40010800

080001d4 <data_LCD>:
 80001d4:	e92d 41f0 	stmdb	sp!, {r4, r5, r6, r7, r8, lr}
 80001d8:	4607      	mov	r7, r0
 80001da:	481e      	ldr	r0, [pc, #120]	; (8000254 <data_LCD+0x80>)
 80001dc:	2201      	movs	r2, #1
 80001de:	4606      	mov	r6, r0
 80001e0:	2120      	movs	r1, #32
 80001e2:	4690      	mov	r8, r2
 80001e4:	f001 ffd6 	bl	8002194 <HAL_GPIO_WritePin>
 80001e8:	2200      	movs	r2, #0
 80001ea:	2140      	movs	r1, #64	; 0x40
 80001ec:	4630      	mov	r0, r6
 80001ee:	2508      	movs	r5, #8
 80001f0:	f001 ffd0 	bl	8002194 <HAL_GPIO_WritePin>
 80001f4:	e015      	b.n	8000222 <data_LCD+0x4e>
 80001f6:	2201      	movs	r2, #1
 80001f8:	2110      	movs	r1, #16
 80001fa:	4630      	mov	r0, r6
 80001fc:	f001 ffca 	bl	8002194 <HAL_GPIO_WritePin>
 8000200:	2001      	movs	r0, #1
 8000202:	f000 fc09 	bl	8000a18 <atraso_us>
 8000206:	2201      	movs	r2, #1
 8000208:	2108      	movs	r1, #8
 800020a:	4630      	mov	r0, r6
 800020c:	f001 ffc2 	bl	8002194 <HAL_GPIO_WritePin>
 8000210:	2001      	movs	r0, #1
 8000212:	f000 fc01 	bl	8000a18 <atraso_us>
 8000216:	2200      	movs	r2, #0
 8000218:	2108      	movs	r1, #8
 800021a:	4630      	mov	r0, r6
 800021c:	f001 ffba 	bl	8002194 <HAL_GPIO_WritePin>
 8000220:	b185      	cbz	r5, 8000244 <data_LCD+0x70>
 8000222:	3d01      	subs	r5, #1
 8000224:	fa08 f205 	lsl.w	r2, r8, r5
 8000228:	ea12 0407 	ands.w	r4, r2, r7
 800022c:	d1e3      	bne.n	80001f6 <data_LCD+0x22>
 800022e:	4622      	mov	r2, r4
 8000230:	2110      	movs	r1, #16
 8000232:	4630      	mov	r0, r6
 8000234:	f001 ffae 	bl	8002194 <HAL_GPIO_WritePin>
 8000238:	2001      	movs	r0, #1
 800023a:	f000 fbed 	bl	8000a18 <atraso_us>
 800023e:	2108      	movs	r1, #8
 8000240:	2201      	movs	r2, #1
 8000242:	e7e2      	b.n	800020a <data_LCD+0x36>
 8000244:	2201      	movs	r2, #1
 8000246:	e8bd 41f0 	ldmia.w	sp!, {r4, r5, r6, r7, r8, lr}
 800024a:	2140      	movs	r1, #64	; 0x40
 800024c:	4801      	ldr	r0, [pc, #4]	; (8000254 <data_LCD+0x80>)
 800024e:	f001 bfa1 	b.w	8002194 <HAL_GPIO_WritePin>
 8000252:	bf00      	nop
 8000254:	40010800 	.word	0x40010800

08000258 <inic_LCD>:
 8000258:	b510      	push	{r4, lr}
 800025a:	4c11      	ldr	r4, [pc, #68]	; (80002a0 <inic_LCD+0x48>)
 800025c:	2200      	movs	r2, #0
 800025e:	2180      	movs	r1, #128	; 0x80
 8000260:	4620      	mov	r0, r4
 8000262:	f001 ff97 	bl	8002194 <HAL_GPIO_WritePin>
 8000266:	200a      	movs	r0, #10
 8000268:	f000 fbd6 	bl	8000a18 <atraso_us>
 800026c:	2201      	movs	r2, #1
 800026e:	2180      	movs	r1, #128	; 0x80
 8000270:	4620      	mov	r0, r4
 8000272:	f001 ff8f 	bl	8002194 <HAL_GPIO_WritePin>
 8000276:	2021      	movs	r0, #33	; 0x21
 8000278:	f7ff ff6a 	bl	8000150 <cmd_LCD>
 800027c:	20b0      	movs	r0, #176	; 0xb0
 800027e:	f7ff ff67 	bl	8000150 <cmd_LCD>
 8000282:	2004      	movs	r0, #4
 8000284:	f7ff ff64 	bl	8000150 <cmd_LCD>
 8000288:	2014      	movs	r0, #20
 800028a:	f7ff ff61 	bl	8000150 <cmd_LCD>
 800028e:	2020      	movs	r0, #32
 8000290:	f7ff ff5e 	bl	8000150 <cmd_LCD>
 8000294:	e8bd 4010 	ldmia.w	sp!, {r4, lr}
 8000298:	200c      	movs	r0, #12
 800029a:	f7ff bf59 	b.w	8000150 <cmd_LCD>
 800029e:	bf00      	nop
 80002a0:	40010800 	.word	0x40010800

080002a4 <goto_XY>:
 80002a4:	2905      	cmp	r1, #5
 80002a6:	bf28      	it	cs
 80002a8:	2105      	movcs	r1, #5
 80002aa:	2855      	cmp	r0, #85	; 0x55
 80002ac:	f04f 0254 	mov.w	r2, #84	; 0x54
 80002b0:	bf28      	it	cs
 80002b2:	2053      	movcs	r0, #83	; 0x53
 80002b4:	fb02 0001 	mla	r0, r2, r1, r0
 80002b8:	4b01      	ldr	r3, [pc, #4]	; (80002c0 <goto_XY+0x1c>)
 80002ba:	6018      	str	r0, [r3, #0]
 80002bc:	4770      	bx	lr
 80002be:	bf00      	nop
 80002c0:	2000043c 	.word	0x2000043c

080002c4 <escreve2fb>:
 80002c4:	b508      	push	{r3, lr}
 80002c6:	4601      	mov	r1, r0
 80002c8:	f44f 72fc 	mov.w	r2, #504	; 0x1f8
 80002cc:	4801      	ldr	r0, [pc, #4]	; (80002d4 <escreve2fb+0x10>)
 80002ce:	f003 fb4d 	bl	800396c <memcpy>
 80002d2:	bd08      	pop	{r3, pc}
 80002d4:	20000244 	.word	0x20000244

080002d8 <imprime_LCD>:
 80002d8:	b538      	push	{r3, r4, r5, lr}
 80002da:	4c05      	ldr	r4, [pc, #20]	; (80002f0 <imprime_LCD+0x18>)
 80002dc:	f504 75fc 	add.w	r5, r4, #504	; 0x1f8
 80002e0:	f814 0f01 	ldrb.w	r0, [r4, #1]!
 80002e4:	f7ff ff76 	bl	80001d4 <data_LCD>
 80002e8:	42ac      	cmp	r4, r5
 80002ea:	d1f9      	bne.n	80002e0 <imprime_LCD+0x8>
 80002ec:	bd38      	pop	{r3, r4, r5, pc}
 80002ee:	bf00      	nop
 80002f0:	20000243 	.word	0x20000243

080002f4 <string_LCD>:
 80002f4:	7802      	ldrb	r2, [r0, #0]
 80002f6:	b35a      	cbz	r2, 8000350 <string_LCD+0x5c>
 80002f8:	f04f 0c00 	mov.w	ip, #0
 80002fc:	e92d 43f0 	stmdb	sp!, {r4, r5, r6, r7, r8, r9, lr}
 8000300:	f8df 8050 	ldr.w	r8, [pc, #80]	; 8000354 <string_LCD+0x60>
 8000304:	4f14      	ldr	r7, [pc, #80]	; (8000358 <string_LCD+0x64>)
 8000306:	f8d8 3000 	ldr.w	r3, [r8]
 800030a:	4c14      	ldr	r4, [pc, #80]	; (800035c <string_LCD+0x68>)
 800030c:	443b      	add	r3, r7
 800030e:	f1c7 0706 	rsb	r7, r7, #6
 8000312:	3a20      	subs	r2, #32
 8000314:	eb02 0282 	add.w	r2, r2, r2, lsl #2
 8000318:	18a1      	adds	r1, r4, r2
 800031a:	f814 9002 	ldrb.w	r9, [r4, r2]
 800031e:	784e      	ldrb	r6, [r1, #1]
 8000320:	790a      	ldrb	r2, [r1, #4]
 8000322:	788d      	ldrb	r5, [r1, #2]
 8000324:	f891 e003 	ldrb.w	lr, [r1, #3]
 8000328:	f883 c000 	strb.w	ip, [r3]
 800032c:	f883 9001 	strb.w	r9, [r3, #1]
 8000330:	709e      	strb	r6, [r3, #2]
 8000332:	70dd      	strb	r5, [r3, #3]
 8000334:	f883 e004 	strb.w	lr, [r3, #4]
 8000338:	715a      	strb	r2, [r3, #5]
 800033a:	18f9      	adds	r1, r7, r3
 800033c:	f803 cf06 	strb.w	ip, [r3, #6]!
 8000340:	f810 2f01 	ldrb.w	r2, [r0, #1]!
 8000344:	2a00      	cmp	r2, #0
 8000346:	d1e4      	bne.n	8000312 <string_LCD+0x1e>
 8000348:	f8c8 1000 	str.w	r1, [r8]
 800034c:	e8bd 83f0 	ldmia.w	sp!, {r4, r5, r6, r7, r8, r9, pc}
 8000350:	4770      	bx	lr
 8000352:	bf00      	nop
 8000354:	2000043c 	.word	0x2000043c
 8000358:	20000244 	.word	0x20000244
 800035c:	08003a48 	.word	0x08003a48

08000360 <limpa_LCD>:
 8000360:	f44f 72fc 	mov.w	r2, #504	; 0x1f8
 8000364:	2100      	movs	r1, #0
 8000366:	4801      	ldr	r0, [pc, #4]	; (800036c <limpa_LCD+0xc>)
 8000368:	f003 ba7c 	b.w	8003864 <memset>
 800036c:	20000244 	.word	0x20000244

08000370 <desenha_fig>:
 8000370:	e92d 4ff0 	stmdb	sp!, {r4, r5, r6, r7, r8, r9, sl, fp, lr}
 8000374:	e9d0 6300 	ldrd	r6, r3, [r0]
 8000378:	2e53      	cmp	r6, #83	; 0x53
 800037a:	bf28      	it	cs
 800037c:	2653      	movcs	r6, #83	; 0x53
 800037e:	2b2f      	cmp	r3, #47	; 0x2f
 8000380:	bf28      	it	cs
 8000382:	232f      	movcs	r3, #47	; 0x2f
 8000384:	784a      	ldrb	r2, [r1, #1]
 8000386:	6885      	ldr	r5, [r0, #8]
 8000388:	b085      	sub	sp, #20
 800038a:	468c      	mov	ip, r1
 800038c:	f891 e000 	ldrb.w	lr, [r1]
 8000390:	9302      	str	r3, [sp, #8]
 8000392:	9203      	str	r2, [sp, #12]
 8000394:	b155      	cbz	r5, 80003ac <desenha_fig+0x3c>
 8000396:	68c3      	ldr	r3, [r0, #12]
 8000398:	b143      	cbz	r3, 80003ac <desenha_fig+0x3c>
 800039a:	4575      	cmp	r5, lr
 800039c:	bf28      	it	cs
 800039e:	4675      	movcs	r5, lr
 80003a0:	4293      	cmp	r3, r2
 80003a2:	bf28      	it	cs
 80003a4:	4613      	movcs	r3, r2
 80003a6:	9301      	str	r3, [sp, #4]
 80003a8:	6903      	ldr	r3, [r0, #16]
 80003aa:	e005      	b.n	80003b8 <desenha_fig+0x48>
 80003ac:	6903      	ldr	r3, [r0, #16]
 80003ae:	2b00      	cmp	r3, #0
 80003b0:	d161      	bne.n	8000476 <desenha_fig+0x106>
 80003b2:	4675      	mov	r5, lr
 80003b4:	9a03      	ldr	r2, [sp, #12]
 80003b6:	9201      	str	r2, [sp, #4]
 80003b8:	1972      	adds	r2, r6, r5
 80003ba:	2a54      	cmp	r2, #84	; 0x54
 80003bc:	e9dd 2101 	ldrd	r2, r1, [sp, #4]
 80003c0:	440a      	add	r2, r1
 80003c2:	bf88      	it	hi
 80003c4:	f1c6 0554 	rsbhi	r5, r6, #84	; 0x54
 80003c8:	2a30      	cmp	r2, #48	; 0x30
 80003ca:	d94d      	bls.n	8000468 <desenha_fig+0xf8>
 80003cc:	f1c1 0230 	rsb	r2, r1, #48	; 0x30
 80003d0:	9201      	str	r2, [sp, #4]
 80003d2:	2b00      	cmp	r3, #0
 80003d4:	f040 80b2 	bne.w	800053c <desenha_fig+0x1cc>
 80003d8:	2d00      	cmp	r5, #0
 80003da:	d049      	beq.n	8000470 <desenha_fig+0x100>
 80003dc:	f04f 0b00 	mov.w	fp, #0
 80003e0:	4673      	mov	r3, lr
 80003e2:	495c      	ldr	r1, [pc, #368]	; (8000554 <desenha_fig+0x1e4>)
 80003e4:	9a02      	ldr	r2, [sp, #8]
 80003e6:	2001      	movs	r0, #1
 80003e8:	eb02 070b 	add.w	r7, r2, fp
 80003ec:	2f2f      	cmp	r7, #47	; 0x2f
 80003ee:	bf28      	it	cs
 80003f0:	272f      	movcs	r7, #47	; 0x2f
 80003f2:	f007 0907 	and.w	r9, r7, #7
 80003f6:	fa00 f909 	lsl.w	r9, r0, r9
 80003fa:	f00b 0807 	and.w	r8, fp, #7
 80003fe:	ea6f 0e09 	mvn.w	lr, r9
 8000402:	fa00 f808 	lsl.w	r8, r0, r8
 8000406:	2054      	movs	r0, #84	; 0x54
 8000408:	08ff      	lsrs	r7, r7, #3
 800040a:	fb00 f707 	mul.w	r7, r0, r7
 800040e:	2200      	movs	r2, #0
 8000410:	4618      	mov	r0, r3
 8000412:	ea4f 0adb 	mov.w	sl, fp, lsr #3
 8000416:	fa5f f989 	uxtb.w	r9, r9
 800041a:	fa5f fe8e 	uxtb.w	lr, lr
 800041e:	e006      	b.n	800042e <desenha_fig+0xbe>
 8000420:	ea49 0303 	orr.w	r3, r9, r3
 8000424:	4295      	cmp	r5, r2
 8000426:	540b      	strb	r3, [r1, r0]
 8000428:	d016      	beq.n	8000458 <desenha_fig+0xe8>
 800042a:	f89c 0000 	ldrb.w	r0, [ip]
 800042e:	eb0c 0302 	add.w	r3, ip, r2
 8000432:	18b4      	adds	r4, r6, r2
 8000434:	fb0a 3300 	mla	r3, sl, r0, r3
 8000438:	2c53      	cmp	r4, #83	; 0x53
 800043a:	bf94      	ite	ls
 800043c:	1938      	addls	r0, r7, r4
 800043e:	f107 0053 	addhi.w	r0, r7, #83	; 0x53
 8000442:	789b      	ldrb	r3, [r3, #2]
 8000444:	3201      	adds	r2, #1
 8000446:	ea13 0f08 	tst.w	r3, r8
 800044a:	5c0b      	ldrb	r3, [r1, r0]
 800044c:	d1e8      	bne.n	8000420 <desenha_fig+0xb0>
 800044e:	ea0e 0303 	and.w	r3, lr, r3
 8000452:	4295      	cmp	r5, r2
 8000454:	540b      	strb	r3, [r1, r0]
 8000456:	d1e8      	bne.n	800042a <desenha_fig+0xba>
 8000458:	9b01      	ldr	r3, [sp, #4]
 800045a:	f10b 0b01 	add.w	fp, fp, #1
 800045e:	455b      	cmp	r3, fp
 8000460:	d906      	bls.n	8000470 <desenha_fig+0x100>
 8000462:	f89c 3000 	ldrb.w	r3, [ip]
 8000466:	e7bd      	b.n	80003e4 <desenha_fig+0x74>
 8000468:	b993      	cbnz	r3, 8000490 <desenha_fig+0x120>
 800046a:	9b01      	ldr	r3, [sp, #4]
 800046c:	2b00      	cmp	r3, #0
 800046e:	d1b3      	bne.n	80003d8 <desenha_fig+0x68>
 8000470:	b005      	add	sp, #20
 8000472:	e8bd 8ff0 	ldmia.w	sp!, {r4, r5, r6, r7, r8, r9, sl, fp, pc}
 8000476:	6942      	ldr	r2, [r0, #20]
 8000478:	2a00      	cmp	r2, #0
 800047a:	d09a      	beq.n	80003b2 <desenha_fig+0x42>
 800047c:	9903      	ldr	r1, [sp, #12]
 800047e:	461d      	mov	r5, r3
 8000480:	428a      	cmp	r2, r1
 8000482:	bf28      	it	cs
 8000484:	460a      	movcs	r2, r1
 8000486:	4573      	cmp	r3, lr
 8000488:	bf28      	it	cs
 800048a:	4675      	movcs	r5, lr
 800048c:	9201      	str	r2, [sp, #4]
 800048e:	e793      	b.n	80003b8 <desenha_fig+0x48>
 8000490:	6943      	ldr	r3, [r0, #20]
 8000492:	2b00      	cmp	r3, #0
 8000494:	d0e9      	beq.n	800046a <desenha_fig+0xfa>
 8000496:	9b03      	ldr	r3, [sp, #12]
 8000498:	9a01      	ldr	r2, [sp, #4]
 800049a:	ebae 0a05 	sub.w	sl, lr, r5
 800049e:	1a9b      	subs	r3, r3, r2
 80004a0:	2a00      	cmp	r2, #0
 80004a2:	d0e5      	beq.n	8000470 <desenha_fig+0x100>
 80004a4:	2d00      	cmp	r5, #0
 80004a6:	d0e3      	beq.n	8000470 <desenha_fig+0x100>
 80004a8:	9a02      	ldr	r2, [sp, #8]
 80004aa:	9301      	str	r3, [sp, #4]
 80004ac:	1ad3      	subs	r3, r2, r3
 80004ae:	9302      	str	r3, [sp, #8]
 80004b0:	4673      	mov	r3, lr
 80004b2:	4928      	ldr	r1, [pc, #160]	; (8000554 <desenha_fig+0x1e4>)
 80004b4:	44e2      	add	sl, ip
 80004b6:	e9dd 0201 	ldrd	r0, r2, [sp, #4]
 80004ba:	1817      	adds	r7, r2, r0
 80004bc:	2f2f      	cmp	r7, #47	; 0x2f
 80004be:	bf28      	it	cs
 80004c0:	272f      	movcs	r7, #47	; 0x2f
 80004c2:	2401      	movs	r4, #1
 80004c4:	f007 0907 	and.w	r9, r7, #7
 80004c8:	fa04 f909 	lsl.w	r9, r4, r9
 80004cc:	ea6f 0e09 	mvn.w	lr, r9
 80004d0:	f000 0807 	and.w	r8, r0, #7
 80004d4:	ea4f 0bd0 	mov.w	fp, r0, lsr #3
 80004d8:	2054      	movs	r0, #84	; 0x54
 80004da:	08ff      	lsrs	r7, r7, #3
 80004dc:	fb00 f707 	mul.w	r7, r0, r7
 80004e0:	2200      	movs	r2, #0
 80004e2:	4618      	mov	r0, r3
 80004e4:	fa04 f808 	lsl.w	r8, r4, r8
 80004e8:	fa5f f989 	uxtb.w	r9, r9
 80004ec:	fa5f fe8e 	uxtb.w	lr, lr
 80004f0:	e006      	b.n	8000500 <desenha_fig+0x190>
 80004f2:	ea49 0303 	orr.w	r3, r9, r3
 80004f6:	4295      	cmp	r5, r2
 80004f8:	540b      	strb	r3, [r1, r0]
 80004fa:	d016      	beq.n	800052a <desenha_fig+0x1ba>
 80004fc:	f89c 0000 	ldrb.w	r0, [ip]
 8000500:	eb0a 0302 	add.w	r3, sl, r2
 8000504:	18b4      	adds	r4, r6, r2
 8000506:	fb0b 3300 	mla	r3, fp, r0, r3
 800050a:	2c53      	cmp	r4, #83	; 0x53
 800050c:	bf94      	ite	ls
 800050e:	1938      	addls	r0, r7, r4
 8000510:	f107 0053 	addhi.w	r0, r7, #83	; 0x53
 8000514:	789b      	ldrb	r3, [r3, #2]
 8000516:	3201      	adds	r2, #1
 8000518:	ea13 0f08 	tst.w	r3, r8
 800051c:	5c0b      	ldrb	r3, [r1, r0]
 800051e:	d1e8      	bne.n	80004f2 <desenha_fig+0x182>
 8000520:	ea0e 0303 	and.w	r3, lr, r3
 8000524:	4295      	cmp	r5, r2
 8000526:	540b      	strb	r3, [r1, r0]
 8000528:	d1e8      	bne.n	80004fc <desenha_fig+0x18c>
 800052a:	9b01      	ldr	r3, [sp, #4]
 800052c:	9a03      	ldr	r2, [sp, #12]
 800052e:	3301      	adds	r3, #1
 8000530:	429a      	cmp	r2, r3
 8000532:	9301      	str	r3, [sp, #4]
 8000534:	d09c      	beq.n	8000470 <desenha_fig+0x100>
 8000536:	f89c 3000 	ldrb.w	r3, [ip]
 800053a:	e7bc      	b.n	80004b6 <desenha_fig+0x146>
 800053c:	6943      	ldr	r3, [r0, #20]
 800053e:	2b00      	cmp	r3, #0
 8000540:	f43f af4a 	beq.w	80003d8 <desenha_fig+0x68>
 8000544:	9a03      	ldr	r2, [sp, #12]
 8000546:	f1a1 0330 	sub.w	r3, r1, #48	; 0x30
 800054a:	4413      	add	r3, r2
 800054c:	ebae 0a05 	sub.w	sl, lr, r5
 8000550:	e7a8      	b.n	80004a4 <desenha_fig+0x134>
 8000552:	bf00      	nop
 8000554:	20000244 	.word	0x20000244

08000558 <apaga_fig>:
 8000558:	f7ff bf0a 	b.w	8000370 <desenha_fig>

0800055c <escreve_Nr_Peq>:
 800055c:	e92d 4ff0 	stmdb	sp!, {r4, r5, r6, r7, r8, r9, sl, fp, lr}
 8000560:	f04f 3420 	mov.w	r4, #538976288	; 0x20202020
 8000564:	b091      	sub	sp, #68	; 0x44
 8000566:	2a00      	cmp	r2, #0
 8000568:	e9cd 440d 	strd	r4, r4, [sp, #52]	; 0x34
 800056c:	f8cd 403b 	str.w	r4, [sp, #59]	; 0x3b
 8000570:	f2c0 8213 	blt.w	800099a <escreve_Nr_Peq+0x43e>
 8000574:	4dc5      	ldr	r5, [pc, #788]	; (800088c <escreve_Nr_Peq+0x330>)
 8000576:	fb85 4502 	smull	r4, r5, r5, r2
 800057a:	17d4      	asrs	r4, r2, #31
 800057c:	ebc4 04a5 	rsb	r4, r4, r5, asr #2
 8000580:	eb04 0584 	add.w	r5, r4, r4, lsl #2
 8000584:	eba2 0245 	sub.w	r2, r2, r5, lsl #1
 8000588:	f88d 2034 	strb.w	r2, [sp, #52]	; 0x34
 800058c:	2c00      	cmp	r4, #0
 800058e:	f000 8226 	beq.w	80009de <escreve_Nr_Peq+0x482>
 8000592:	4abf      	ldr	r2, [pc, #764]	; (8000890 <escreve_Nr_Peq+0x334>)
 8000594:	fba2 5204 	umull	r5, r2, r2, r4
 8000598:	08d2      	lsrs	r2, r2, #3
 800059a:	eb02 0582 	add.w	r5, r2, r2, lsl #2
 800059e:	eba4 0445 	sub.w	r4, r4, r5, lsl #1
 80005a2:	f88d 4035 	strb.w	r4, [sp, #53]	; 0x35
 80005a6:	2402      	movs	r4, #2
 80005a8:	2a00      	cmp	r2, #0
 80005aa:	d061      	beq.n	8000670 <escreve_Nr_Peq+0x114>
 80005ac:	2500      	movs	r5, #0
 80005ae:	4eb8      	ldr	r6, [pc, #736]	; (8000890 <escreve_Nr_Peq+0x334>)
 80005b0:	fba6 7402 	umull	r7, r4, r6, r2
 80005b4:	08e4      	lsrs	r4, r4, #3
 80005b6:	eb04 0784 	add.w	r7, r4, r4, lsl #2
 80005ba:	eba2 0247 	sub.w	r2, r2, r7, lsl #1
 80005be:	f88d 2036 	strb.w	r2, [sp, #54]	; 0x36
 80005c2:	2c00      	cmp	r4, #0
 80005c4:	f000 8208 	beq.w	80009d8 <escreve_Nr_Peq+0x47c>
 80005c8:	fba6 7204 	umull	r7, r2, r6, r4
 80005cc:	08d2      	lsrs	r2, r2, #3
 80005ce:	eb02 0782 	add.w	r7, r2, r2, lsl #2
 80005d2:	eba4 0447 	sub.w	r4, r4, r7, lsl #1
 80005d6:	f88d 4037 	strb.w	r4, [sp, #55]	; 0x37
 80005da:	2a00      	cmp	r2, #0
 80005dc:	f000 81f9 	beq.w	80009d2 <escreve_Nr_Peq+0x476>
 80005e0:	fba6 4702 	umull	r4, r7, r6, r2
 80005e4:	08ff      	lsrs	r7, r7, #3
 80005e6:	eb07 0487 	add.w	r4, r7, r7, lsl #2
 80005ea:	eba2 0244 	sub.w	r2, r2, r4, lsl #1
 80005ee:	f88d 2038 	strb.w	r2, [sp, #56]	; 0x38
 80005f2:	2f00      	cmp	r7, #0
 80005f4:	f000 81f5 	beq.w	80009e2 <escreve_Nr_Peq+0x486>
 80005f8:	fba6 2407 	umull	r2, r4, r6, r7
 80005fc:	08e4      	lsrs	r4, r4, #3
 80005fe:	eb04 0284 	add.w	r2, r4, r4, lsl #2
 8000602:	eba7 0742 	sub.w	r7, r7, r2, lsl #1
 8000606:	f88d 7039 	strb.w	r7, [sp, #57]	; 0x39
 800060a:	2c00      	cmp	r4, #0
 800060c:	f000 81ef 	beq.w	80009ee <escreve_Nr_Peq+0x492>
 8000610:	fba6 7204 	umull	r7, r2, r6, r4
 8000614:	08d2      	lsrs	r2, r2, #3
 8000616:	eb02 0782 	add.w	r7, r2, r2, lsl #2
 800061a:	eba4 0447 	sub.w	r4, r4, r7, lsl #1
 800061e:	f88d 403a 	strb.w	r4, [sp, #58]	; 0x3a
 8000622:	2a00      	cmp	r2, #0
 8000624:	f000 81e0 	beq.w	80009e8 <escreve_Nr_Peq+0x48c>
 8000628:	fba6 7402 	umull	r7, r4, r6, r2
 800062c:	08e4      	lsrs	r4, r4, #3
 800062e:	eb04 0784 	add.w	r7, r4, r4, lsl #2
 8000632:	eba2 0247 	sub.w	r2, r2, r7, lsl #1
 8000636:	f88d 203b 	strb.w	r2, [sp, #59]	; 0x3b
 800063a:	2c00      	cmp	r4, #0
 800063c:	f000 81da 	beq.w	80009f4 <escreve_Nr_Peq+0x498>
 8000640:	fba6 6204 	umull	r6, r2, r6, r4
 8000644:	08d2      	lsrs	r2, r2, #3
 8000646:	eb02 0682 	add.w	r6, r2, r2, lsl #2
 800064a:	eba4 0446 	sub.w	r4, r4, r6, lsl #1
 800064e:	f88d 403c 	strb.w	r4, [sp, #60]	; 0x3c
 8000652:	2a00      	cmp	r2, #0
 8000654:	f000 81d1 	beq.w	80009fa <escreve_Nr_Peq+0x49e>
 8000658:	f88d 203d 	strb.w	r2, [sp, #61]	; 0x3d
 800065c:	240a      	movs	r4, #10
 800065e:	2209      	movs	r2, #9
 8000660:	b135      	cbz	r5, 8000670 <escreve_Nr_Peq+0x114>
 8000662:	3440      	adds	r4, #64	; 0x40
 8000664:	eb0d 0504 	add.w	r5, sp, r4
 8000668:	1c94      	adds	r4, r2, #2
 800066a:	222d      	movs	r2, #45	; 0x2d
 800066c:	f805 2c0c 	strb.w	r2, [r5, #-12]
 8000670:	2b00      	cmp	r3, #0
 8000672:	bf18      	it	ne
 8000674:	461c      	movne	r4, r3
 8000676:	f100 0e04 	add.w	lr, r0, #4
 800067a:	292f      	cmp	r1, #47	; 0x2f
 800067c:	f101 0001 	add.w	r0, r1, #1
 8000680:	f101 0702 	add.w	r7, r1, #2
 8000684:	4688      	mov	r8, r1
 8000686:	bf28      	it	cs
 8000688:	f04f 082f 	movcs.w	r8, #47	; 0x2f
 800068c:	282f      	cmp	r0, #47	; 0x2f
 800068e:	f101 0503 	add.w	r5, r1, #3
 8000692:	bf28      	it	cs
 8000694:	202f      	movcs	r0, #47	; 0x2f
 8000696:	2f2f      	cmp	r7, #47	; 0x2f
 8000698:	f101 0304 	add.w	r3, r1, #4
 800069c:	bf28      	it	cs
 800069e:	272f      	movcs	r7, #47	; 0x2f
 80006a0:	2d2f      	cmp	r5, #47	; 0x2f
 80006a2:	f04f 0c54 	mov.w	ip, #84	; 0x54
 80006a6:	bf28      	it	cs
 80006a8:	252f      	movcs	r5, #47	; 0x2f
 80006aa:	2b2f      	cmp	r3, #47	; 0x2f
 80006ac:	f04f 0201 	mov.w	r2, #1
 80006b0:	bf28      	it	cs
 80006b2:	232f      	movcs	r3, #47	; 0x2f
 80006b4:	a90d      	add	r1, sp, #52	; 0x34
 80006b6:	4421      	add	r1, r4
 80006b8:	f000 0407 	and.w	r4, r0, #7
 80006bc:	08c0      	lsrs	r0, r0, #3
 80006be:	fb0c f900 	mul.w	r9, ip, r0
 80006c2:	f008 0607 	and.w	r6, r8, #7
 80006c6:	f007 0007 	and.w	r0, r7, #7
 80006ca:	ea4f 08d8 	mov.w	r8, r8, lsr #3
 80006ce:	08ff      	lsrs	r7, r7, #3
 80006d0:	9101      	str	r1, [sp, #4]
 80006d2:	f005 0107 	and.w	r1, r5, #7
 80006d6:	08ed      	lsrs	r5, r5, #3
 80006d8:	fa02 f606 	lsl.w	r6, r2, r6
 80006dc:	fb0c fa08 	mul.w	sl, ip, r8
 80006e0:	fb0c f807 	mul.w	r8, ip, r7
 80006e4:	fb0c f705 	mul.w	r7, ip, r5
 80006e8:	f003 0507 	and.w	r5, r3, #7
 80006ec:	08db      	lsrs	r3, r3, #3
 80006ee:	fa02 f404 	lsl.w	r4, r2, r4
 80006f2:	fa02 f000 	lsl.w	r0, r2, r0
 80006f6:	fa02 f101 	lsl.w	r1, r2, r1
 80006fa:	40aa      	lsls	r2, r5
 80006fc:	fb0c f503 	mul.w	r5, ip, r3
 8000700:	ea6f 0c06 	mvn.w	ip, r6
 8000704:	b2f3      	uxtb	r3, r6
 8000706:	43e6      	mvns	r6, r4
 8000708:	9308      	str	r3, [sp, #32]
 800070a:	b2e3      	uxtb	r3, r4
 800070c:	43c4      	mvns	r4, r0
 800070e:	9309      	str	r3, [sp, #36]	; 0x24
 8000710:	b2c3      	uxtb	r3, r0
 8000712:	43c8      	mvns	r0, r1
 8000714:	930a      	str	r3, [sp, #40]	; 0x28
 8000716:	b2cb      	uxtb	r3, r1
 8000718:	43d1      	mvns	r1, r2
 800071a:	930b      	str	r3, [sp, #44]	; 0x2c
 800071c:	b2d3      	uxtb	r3, r2
 800071e:	fa5f f28c 	uxtb.w	r2, ip
 8000722:	9204      	str	r2, [sp, #16]
 8000724:	b2f2      	uxtb	r2, r6
 8000726:	9202      	str	r2, [sp, #8]
 8000728:	b2e2      	uxtb	r2, r4
 800072a:	9205      	str	r2, [sp, #20]
 800072c:	b2c2      	uxtb	r2, r0
 800072e:	9307      	str	r3, [sp, #28]
 8000730:	9206      	str	r2, [sp, #24]
 8000732:	4b58      	ldr	r3, [pc, #352]	; (8000894 <escreve_Nr_Peq+0x338>)
 8000734:	b2ca      	uxtb	r2, r1
 8000736:	9203      	str	r2, [sp, #12]
 8000738:	9a01      	ldr	r2, [sp, #4]
 800073a:	4c57      	ldr	r4, [pc, #348]	; (8000898 <escreve_Nr_Peq+0x33c>)
 800073c:	f812 6d01 	ldrb.w	r6, [r2, #-1]!
 8000740:	f1ae 0104 	sub.w	r1, lr, #4
 8000744:	9201      	str	r2, [sp, #4]
 8000746:	f1a4 0228 	sub.w	r2, r4, #40	; 0x28
 800074a:	eb02 0086 	add.w	r0, r2, r6, lsl #2
 800074e:	f8cd e000 	str.w	lr, [sp]
 8000752:	2953      	cmp	r1, #83	; 0x53
 8000754:	460a      	mov	r2, r1
 8000756:	bf28      	it	cs
 8000758:	2253      	movcs	r2, #83	; 0x53
 800075a:	2e2d      	cmp	r6, #45	; 0x2d
 800075c:	f000 809e 	beq.w	800089c <escreve_Nr_Peq+0x340>
 8000760:	2e20      	cmp	r6, #32
 8000762:	d141      	bne.n	80007e8 <escreve_Nr_Peq+0x28c>
 8000764:	eb02 0b0a 	add.w	fp, r2, sl
 8000768:	f813 c00b 	ldrb.w	ip, [r3, fp]
 800076c:	f8dd e010 	ldr.w	lr, [sp, #16]
 8000770:	ea0e 0c0c 	and.w	ip, lr, ip
 8000774:	f803 c00b 	strb.w	ip, [r3, fp]
 8000778:	eb02 0b09 	add.w	fp, r2, r9
 800077c:	f813 c00b 	ldrb.w	ip, [r3, fp]
 8000780:	f8dd e008 	ldr.w	lr, [sp, #8]
 8000784:	ea0e 0c0c 	and.w	ip, lr, ip
 8000788:	f803 c00b 	strb.w	ip, [r3, fp]
 800078c:	eb02 0b08 	add.w	fp, r2, r8
 8000790:	f813 c00b 	ldrb.w	ip, [r3, fp]
 8000794:	f8dd e014 	ldr.w	lr, [sp, #20]
 8000798:	ea0e 0c0c 	and.w	ip, lr, ip
 800079c:	f803 c00b 	strb.w	ip, [r3, fp]
 80007a0:	eb02 0c07 	add.w	ip, r2, r7
 80007a4:	f813 b00c 	ldrb.w	fp, [r3, ip]
 80007a8:	f8dd e018 	ldr.w	lr, [sp, #24]
 80007ac:	442a      	add	r2, r5
 80007ae:	ea0e 0b0b 	and.w	fp, lr, fp
 80007b2:	f803 b00c 	strb.w	fp, [r3, ip]
 80007b6:	f813 c002 	ldrb.w	ip, [r3, r2]
 80007ba:	f8dd e00c 	ldr.w	lr, [sp, #12]
 80007be:	ea0e 0c0c 	and.w	ip, lr, ip
 80007c2:	f803 c002 	strb.w	ip, [r3, r2]
 80007c6:	9a00      	ldr	r2, [sp, #0]
 80007c8:	3101      	adds	r1, #1
 80007ca:	4291      	cmp	r1, r2
 80007cc:	f104 0401 	add.w	r4, r4, #1
 80007d0:	f100 0001 	add.w	r0, r0, #1
 80007d4:	d1bd      	bne.n	8000752 <escreve_Nr_Peq+0x1f6>
 80007d6:	f101 0e04 	add.w	lr, r1, #4
 80007da:	9901      	ldr	r1, [sp, #4]
 80007dc:	aa0d      	add	r2, sp, #52	; 0x34
 80007de:	428a      	cmp	r2, r1
 80007e0:	d1aa      	bne.n	8000738 <escreve_Nr_Peq+0x1dc>
 80007e2:	b011      	add	sp, #68	; 0x44
 80007e4:	e8bd 8ff0 	ldmia.w	sp!, {r4, r5, r6, r7, r8, r9, sl, fp, pc}
 80007e8:	f890 b000 	ldrb.w	fp, [r0]
 80007ec:	eb02 0c0a 	add.w	ip, r2, sl
 80007f0:	f01b 0f01 	tst.w	fp, #1
 80007f4:	bf18      	it	ne
 80007f6:	f8dd e020 	ldrne.w	lr, [sp, #32]
 80007fa:	f813 b00c 	ldrb.w	fp, [r3, ip]
 80007fe:	bf0a      	itet	eq
 8000800:	f8dd e010 	ldreq.w	lr, [sp, #16]
 8000804:	ea4e 0b0b 	orrne.w	fp, lr, fp
 8000808:	ea0e 0b0b 	andeq.w	fp, lr, fp
 800080c:	f803 b00c 	strb.w	fp, [r3, ip]
 8000810:	f890 b000 	ldrb.w	fp, [r0]
 8000814:	eb02 0c09 	add.w	ip, r2, r9
 8000818:	f01b 0f02 	tst.w	fp, #2
 800081c:	f040 8099 	bne.w	8000952 <escreve_Nr_Peq+0x3f6>
 8000820:	f813 b00c 	ldrb.w	fp, [r3, ip]
 8000824:	f8dd e008 	ldr.w	lr, [sp, #8]
 8000828:	ea0e 0b0b 	and.w	fp, lr, fp
 800082c:	f803 b00c 	strb.w	fp, [r3, ip]
 8000830:	f890 b000 	ldrb.w	fp, [r0]
 8000834:	eb02 0c08 	add.w	ip, r2, r8
 8000838:	f01b 0f04 	tst.w	fp, #4
 800083c:	f040 8080 	bne.w	8000940 <escreve_Nr_Peq+0x3e4>
 8000840:	f813 b00c 	ldrb.w	fp, [r3, ip]
 8000844:	f8dd e014 	ldr.w	lr, [sp, #20]
 8000848:	ea0e 0b0b 	and.w	fp, lr, fp
 800084c:	f803 b00c 	strb.w	fp, [r3, ip]
 8000850:	f890 b000 	ldrb.w	fp, [r0]
 8000854:	eb02 0c07 	add.w	ip, r2, r7
 8000858:	f01b 0f08 	tst.w	fp, #8
 800085c:	d167      	bne.n	800092e <escreve_Nr_Peq+0x3d2>
 800085e:	f813 b00c 	ldrb.w	fp, [r3, ip]
 8000862:	f8dd e018 	ldr.w	lr, [sp, #24]
 8000866:	ea0e 0b0b 	and.w	fp, lr, fp
 800086a:	f803 b00c 	strb.w	fp, [r3, ip]
 800086e:	f890 c000 	ldrb.w	ip, [r0]
 8000872:	442a      	add	r2, r5
 8000874:	f01c 0f10 	tst.w	ip, #16
 8000878:	d09d      	beq.n	80007b6 <escreve_Nr_Peq+0x25a>
 800087a:	f813 c002 	ldrb.w	ip, [r3, r2]
 800087e:	f8dd e01c 	ldr.w	lr, [sp, #28]
 8000882:	ea4e 0c0c 	orr.w	ip, lr, ip
 8000886:	f803 c002 	strb.w	ip, [r3, r2]
 800088a:	e79c      	b.n	80007c6 <escreve_Nr_Peq+0x26a>
 800088c:	66666667 	.word	0x66666667
 8000890:	cccccccd 	.word	0xcccccccd
 8000894:	20000244 	.word	0x20000244
 8000898:	08003c50 	.word	0x08003c50
 800089c:	f894 b000 	ldrb.w	fp, [r4]
 80008a0:	eb02 0c0a 	add.w	ip, r2, sl
 80008a4:	f01b 0f01 	tst.w	fp, #1
 80008a8:	bf18      	it	ne
 80008aa:	f8dd e020 	ldrne.w	lr, [sp, #32]
 80008ae:	f813 b00c 	ldrb.w	fp, [r3, ip]
 80008b2:	bf0a      	itet	eq
 80008b4:	f8dd e010 	ldreq.w	lr, [sp, #16]
 80008b8:	ea4e 0b0b 	orrne.w	fp, lr, fp
 80008bc:	ea0e 0b0b 	andeq.w	fp, lr, fp
 80008c0:	f803 b00c 	strb.w	fp, [r3, ip]
 80008c4:	f894 b000 	ldrb.w	fp, [r4]
 80008c8:	eb02 0c09 	add.w	ip, r2, r9
 80008cc:	f01b 0f02 	tst.w	fp, #2
 80008d0:	d15a      	bne.n	8000988 <escreve_Nr_Peq+0x42c>
 80008d2:	f813 b00c 	ldrb.w	fp, [r3, ip]
 80008d6:	f8dd e008 	ldr.w	lr, [sp, #8]
 80008da:	ea0e 0b0b 	and.w	fp, lr, fp
 80008de:	f803 b00c 	strb.w	fp, [r3, ip]
 80008e2:	f894 b000 	ldrb.w	fp, [r4]
 80008e6:	eb02 0c08 	add.w	ip, r2, r8
 80008ea:	f01b 0f04 	tst.w	fp, #4
 80008ee:	d142      	bne.n	8000976 <escreve_Nr_Peq+0x41a>
 80008f0:	f813 b00c 	ldrb.w	fp, [r3, ip]
 80008f4:	f8dd e014 	ldr.w	lr, [sp, #20]
 80008f8:	ea0e 0b0b 	and.w	fp, lr, fp
 80008fc:	f803 b00c 	strb.w	fp, [r3, ip]
 8000900:	f894 b000 	ldrb.w	fp, [r4]
 8000904:	eb02 0c07 	add.w	ip, r2, r7
 8000908:	f01b 0f08 	tst.w	fp, #8
 800090c:	d12a      	bne.n	8000964 <escreve_Nr_Peq+0x408>
 800090e:	f813 b00c 	ldrb.w	fp, [r3, ip]
 8000912:	f8dd e018 	ldr.w	lr, [sp, #24]
 8000916:	ea0e 0b0b 	and.w	fp, lr, fp
 800091a:	f803 b00c 	strb.w	fp, [r3, ip]
 800091e:	f894 c000 	ldrb.w	ip, [r4]
 8000922:	442a      	add	r2, r5
 8000924:	f01c 0f10 	tst.w	ip, #16
 8000928:	f43f af45 	beq.w	80007b6 <escreve_Nr_Peq+0x25a>
 800092c:	e7a5      	b.n	800087a <escreve_Nr_Peq+0x31e>
 800092e:	f813 b00c 	ldrb.w	fp, [r3, ip]
 8000932:	f8dd e02c 	ldr.w	lr, [sp, #44]	; 0x2c
 8000936:	ea4e 0b0b 	orr.w	fp, lr, fp
 800093a:	f803 b00c 	strb.w	fp, [r3, ip]
 800093e:	e796      	b.n	800086e <escreve_Nr_Peq+0x312>
 8000940:	f813 b00c 	ldrb.w	fp, [r3, ip]
 8000944:	f8dd e028 	ldr.w	lr, [sp, #40]	; 0x28
 8000948:	ea4e 0b0b 	orr.w	fp, lr, fp
 800094c:	f803 b00c 	strb.w	fp, [r3, ip]
 8000950:	e77e      	b.n	8000850 <escreve_Nr_Peq+0x2f4>
 8000952:	f813 b00c 	ldrb.w	fp, [r3, ip]
 8000956:	f8dd e024 	ldr.w	lr, [sp, #36]	; 0x24
 800095a:	ea4e 0b0b 	orr.w	fp, lr, fp
 800095e:	f803 b00c 	strb.w	fp, [r3, ip]
 8000962:	e765      	b.n	8000830 <escreve_Nr_Peq+0x2d4>
 8000964:	f813 b00c 	ldrb.w	fp, [r3, ip]
 8000968:	f8dd e02c 	ldr.w	lr, [sp, #44]	; 0x2c
 800096c:	ea4e 0b0b 	orr.w	fp, lr, fp
 8000970:	f803 b00c 	strb.w	fp, [r3, ip]
 8000974:	e7d3      	b.n	800091e <escreve_Nr_Peq+0x3c2>
 8000976:	f813 b00c 	ldrb.w	fp, [r3, ip]
 800097a:	f8dd e028 	ldr.w	lr, [sp, #40]	; 0x28
 800097e:	ea4e 0b0b 	orr.w	fp, lr, fp
 8000982:	f803 b00c 	strb.w	fp, [r3, ip]
 8000986:	e7bb      	b.n	8000900 <escreve_Nr_Peq+0x3a4>
 8000988:	f813 b00c 	ldrb.w	fp, [r3, ip]
 800098c:	f8dd e024 	ldr.w	lr, [sp, #36]	; 0x24
 8000990:	ea4e 0b0b 	orr.w	fp, lr, fp
 8000994:	f803 b00c 	strb.w	fp, [r3, ip]
 8000998:	e7a3      	b.n	80008e2 <escreve_Nr_Peq+0x386>
 800099a:	4254      	negs	r4, r2
 800099c:	4a1a      	ldr	r2, [pc, #104]	; (8000a08 <escreve_Nr_Peq+0x4ac>)
 800099e:	fba2 6504 	umull	r6, r5, r2, r4
 80009a2:	08ed      	lsrs	r5, r5, #3
 80009a4:	eb05 0685 	add.w	r6, r5, r5, lsl #2
 80009a8:	eba4 0446 	sub.w	r4, r4, r6, lsl #1
 80009ac:	f88d 4034 	strb.w	r4, [sp, #52]	; 0x34
 80009b0:	b335      	cbz	r5, 8000a00 <escreve_Nr_Peq+0x4a4>
 80009b2:	fba2 4205 	umull	r4, r2, r2, r5
 80009b6:	08d2      	lsrs	r2, r2, #3
 80009b8:	eb02 0482 	add.w	r4, r2, r2, lsl #2
 80009bc:	eba5 0544 	sub.w	r5, r5, r4, lsl #1
 80009c0:	f88d 5035 	strb.w	r5, [sp, #53]	; 0x35
 80009c4:	2501      	movs	r5, #1
 80009c6:	2a00      	cmp	r2, #0
 80009c8:	f47f adf1 	bne.w	80005ae <escreve_Nr_Peq+0x52>
 80009cc:	2402      	movs	r4, #2
 80009ce:	2201      	movs	r2, #1
 80009d0:	e647      	b.n	8000662 <escreve_Nr_Peq+0x106>
 80009d2:	2404      	movs	r4, #4
 80009d4:	2203      	movs	r2, #3
 80009d6:	e643      	b.n	8000660 <escreve_Nr_Peq+0x104>
 80009d8:	2403      	movs	r4, #3
 80009da:	2202      	movs	r2, #2
 80009dc:	e640      	b.n	8000660 <escreve_Nr_Peq+0x104>
 80009de:	2401      	movs	r4, #1
 80009e0:	e646      	b.n	8000670 <escreve_Nr_Peq+0x114>
 80009e2:	2405      	movs	r4, #5
 80009e4:	2204      	movs	r2, #4
 80009e6:	e63b      	b.n	8000660 <escreve_Nr_Peq+0x104>
 80009e8:	2407      	movs	r4, #7
 80009ea:	2206      	movs	r2, #6
 80009ec:	e638      	b.n	8000660 <escreve_Nr_Peq+0x104>
 80009ee:	2406      	movs	r4, #6
 80009f0:	2205      	movs	r2, #5
 80009f2:	e635      	b.n	8000660 <escreve_Nr_Peq+0x104>
 80009f4:	2408      	movs	r4, #8
 80009f6:	2207      	movs	r2, #7
 80009f8:	e632      	b.n	8000660 <escreve_Nr_Peq+0x104>
 80009fa:	2409      	movs	r4, #9
 80009fc:	2208      	movs	r2, #8
 80009fe:	e62f      	b.n	8000660 <escreve_Nr_Peq+0x104>
 8000a00:	462a      	mov	r2, r5
 8000a02:	2401      	movs	r4, #1
 8000a04:	e62d      	b.n	8000662 <escreve_Nr_Peq+0x106>
 8000a06:	bf00      	nop
 8000a08:	cccccccd 	.word	0xcccccccd

08000a0c <init_LFSR>:
 8000a0c:	4b01      	ldr	r3, [pc, #4]	; (8000a14 <init_LFSR+0x8>)
 8000a0e:	6018      	str	r0, [r3, #0]
 8000a10:	4770      	bx	lr
 8000a12:	bf00      	nop
 8000a14:	20000440 	.word	0x20000440

08000a18 <atraso_us>:
 8000a18:	f240 010c 	movw	r1, #12
 8000a1c:	f2c0 0100 	movt	r1, #0
 8000a20:	fb00 f001 	mul.w	r0, r0, r1

08000a24 <r_us>:
 8000a24:	3801      	subs	r0, #1
 8000a26:	d1fd      	bne.n	8000a24 <r_us>
 8000a28:	4770      	bx	lr
 8000a2a:	bf00      	nop

08000a2c <vApplicationGetIdleTaskMemory>:
 8000a2c:	2380      	movs	r3, #128	; 0x80
 8000a2e:	b430      	push	{r4, r5}
 8000a30:	4d03      	ldr	r5, [pc, #12]	; (8000a40 <vApplicationGetIdleTaskMemory+0x14>)
 8000a32:	4c04      	ldr	r4, [pc, #16]	; (8000a44 <vApplicationGetIdleTaskMemory+0x18>)
 8000a34:	6005      	str	r5, [r0, #0]
 8000a36:	600c      	str	r4, [r1, #0]
 8000a38:	6013      	str	r3, [r2, #0]
 8000a3a:	bc30      	pop	{r4, r5}
 8000a3c:	4770      	bx	lr
 8000a3e:	bf00      	nop
 8000a40:	20000644 	.word	0x20000644
 8000a44:	20000444 	.word	0x20000444

08000a48 <vTask_LCD_Print>:
 8000a48:	b508      	push	{r3, lr}
 8000a4a:	f7ff fc45 	bl	80002d8 <imprime_LCD>
 8000a4e:	e7fc      	b.n	8000a4a <vTask_LCD_Print+0x2>

08000a50 <vTask_Desloca>:
 8000a50:	b5f8      	push	{r3, r4, r5, r6, r7, lr}
 8000a52:	2200      	movs	r2, #0
 8000a54:	4604      	mov	r4, r0
 8000a56:	e9d0 3002 	ldrd	r3, r0, [r0, #8]
 8000a5a:	e9d4 5600 	ldrd	r5, r6, [r4]
 8000a5e:	461f      	mov	r7, r3
 8000a60:	e9c0 2202 	strd	r2, r2, [r0, #8]
 8000a64:	e9c0 2204 	strd	r2, r2, [r0, #16]
 8000a68:	e010      	b.n	8000a8c <vTask_Desloca+0x3c>
 8000a6a:	2d50      	cmp	r5, #80	; 0x50
 8000a6c:	bf28      	it	cs
 8000a6e:	2500      	movcs	r5, #0
 8000a70:	6921      	ldr	r1, [r4, #16]
 8000a72:	e9c0 5600 	strd	r5, r6, [r0]
 8000a76:	f7ff fc7b 	bl	8000370 <desenha_fig>
 8000a7a:	69a0      	ldr	r0, [r4, #24]
 8000a7c:	f002 fc26 	bl	80032cc <vTaskDelay>
 8000a80:	68e0      	ldr	r0, [r4, #12]
 8000a82:	6961      	ldr	r1, [r4, #20]
 8000a84:	f7ff fd68 	bl	8000558 <apaga_fig>
 8000a88:	e9d4 3002 	ldrd	r3, r0, [r4, #8]
 8000a8c:	3301      	adds	r3, #1
 8000a8e:	443d      	add	r5, r7
 8000a90:	d1eb      	bne.n	8000a6a <vTask_Desloca+0x1a>
 8000a92:	2d00      	cmp	r5, #0
 8000a94:	bf08      	it	eq
 8000a96:	2550      	moveq	r5, #80	; 0x50
 8000a98:	e7ea      	b.n	8000a70 <vTask_Desloca+0x20>
 8000a9a:	bf00      	nop

08000a9c <vTask_Pontuacao_Test>:
 8000a9c:	2600      	movs	r6, #0
 8000a9e:	b508      	push	{r3, lr}
 8000aa0:	4c0a      	ldr	r4, [pc, #40]	; (8000acc <vTask_Pontuacao_Test+0x30>)
 8000aa2:	4d0b      	ldr	r5, [pc, #44]	; (8000ad0 <vTask_Pontuacao_Test+0x34>)
 8000aa4:	7823      	ldrb	r3, [r4, #0]
 8000aa6:	682a      	ldr	r2, [r5, #0]
 8000aa8:	2b01      	cmp	r3, #1
 8000aaa:	bf08      	it	eq
 8000aac:	3201      	addeq	r2, #1
 8000aae:	f04f 0306 	mov.w	r3, #6
 8000ab2:	f04f 0100 	mov.w	r1, #0
 8000ab6:	f04f 003c 	mov.w	r0, #60	; 0x3c
 8000aba:	bf04      	itt	eq
 8000abc:	7026      	strbeq	r6, [r4, #0]
 8000abe:	602a      	streq	r2, [r5, #0]
 8000ac0:	f7ff fd4c 	bl	800055c <escreve_Nr_Peq>
 8000ac4:	200a      	movs	r0, #10
 8000ac6:	f002 fc01 	bl	80032cc <vTaskDelay>
 8000aca:	e7eb      	b.n	8000aa4 <vTask_Pontuacao_Test+0x8>
 8000acc:	200007a4 	.word	0x200007a4
 8000ad0:	200008b0 	.word	0x200008b0

08000ad4 <vTask_Desloca_Principal_Colisao>:
 8000ad4:	e92d 4888 	stmdb	sp!, {r3, r7, fp, lr}
 8000ad8:	2200      	movs	r2, #0
 8000ada:	2300      	movs	r3, #0
 8000adc:	4c08      	ldr	r4, [pc, #32]	; (8000b00 <vTask_Desloca_Principal_Colisao+0x2c>)
 8000ade:	262d      	movs	r6, #45	; 0x2d
 8000ae0:	e9c4 2302 	strd	r2, r3, [r4, #8]
 8000ae4:	e9c4 2304 	strd	r2, r3, [r4, #16]
 8000ae8:	4f06      	ldr	r7, [pc, #24]	; (8000b04 <vTask_Desloca_Principal_Colisao+0x30>)
 8000aea:	f8df 901c 	ldr.w	r9, [pc, #28]	; 8000b08 <vTask_Desloca_Principal_Colisao+0x34>
 8000aee:	4d07      	ldr	r5, [pc, #28]	; (8000b0c <vTask_Desloca_Principal_Colisao+0x38>)
 8000af0:	f8df 801c 	ldr.w	r8, [pc, #28]	; 8000b10 <vTask_Desloca_Principal_Colisao+0x3c>
 8000af4:	f8df a01c 	ldr.w	sl, [pc, #28]	; 8000b14 <vTask_Desloca_Principal_Colisao+0x40>
 8000af8:	f8df b01c 	ldr.w	fp, [pc, #28]	; 8000b18 <vTask_Desloca_Principal_Colisao+0x44>
 8000afc:	e1d6      	b.n	8000eac <vTask_Desloca_Principal_Colisao+0x3d8>
 8000afe:	bf00      	nop
 8000b00:	20000898 	.word	0x20000898
 8000b04:	20000914 	.word	0x20000914
 8000b08:	200001c0 	.word	0x200001c0
 8000b0c:	200001c4 	.word	0x200001c4
 8000b10:	200008b0 	.word	0x200008b0
 8000b14:	200007c0 	.word	0x200007c0
 8000b18:	200007d8 	.word	0x200007d8
 8000b1c:	3a05      	subs	r2, #5
 8000b1e:	602a      	str	r2, [r5, #0]
 8000b20:	2a32      	cmp	r2, #50	; 0x32
 8000b22:	f240 81dc 	bls.w	8000ede <vTask_Desloca_Principal_Colisao+0x40a>
 8000b26:	2301      	movs	r3, #1
 8000b28:	4aba      	ldr	r2, [pc, #744]	; (8000e14 <vTask_Desloca_Principal_Colisao+0x340>)
 8000b2a:	602e      	str	r6, [r5, #0]
 8000b2c:	7013      	strb	r3, [r2, #0]
 8000b2e:	222d      	movs	r2, #45	; 0x2d
 8000b30:	f8df c2e4 	ldr.w	ip, [pc, #740]	; 8000e18 <vTask_Desloca_Principal_Colisao+0x344>
 8000b34:	f8d9 3000 	ldr.w	r3, [r9]
 8000b38:	f8dc 1000 	ldr.w	r1, [ip]
 8000b3c:	f101 0017 	add.w	r0, r1, #23
 8000b40:	4283      	cmp	r3, r0
 8000b42:	d211      	bcs.n	8000b68 <vTask_Desloca_Principal_Colisao+0x94>
 8000b44:	1d58      	adds	r0, r3, #5
 8000b46:	4281      	cmp	r1, r0
 8000b48:	d20e      	bcs.n	8000b68 <vTask_Desloca_Principal_Colisao+0x94>
 8000b4a:	f8dc 1004 	ldr.w	r1, [ip, #4]
 8000b4e:	1d48      	adds	r0, r1, #5
 8000b50:	4290      	cmp	r0, r2
 8000b52:	d909      	bls.n	8000b68 <vTask_Desloca_Principal_Colisao+0x94>
 8000b54:	1cd0      	adds	r0, r2, #3
 8000b56:	4281      	cmp	r1, r0
 8000b58:	d206      	bcs.n	8000b68 <vTask_Desloca_Principal_Colisao+0x94>
 8000b5a:	222d      	movs	r2, #45	; 0x2d
 8000b5c:	f8d8 1000 	ldr.w	r1, [r8]
 8000b60:	602e      	str	r6, [r5, #0]
 8000b62:	3901      	subs	r1, #1
 8000b64:	f8c8 1000 	str.w	r1, [r8]
 8000b68:	f8df c2b0 	ldr.w	ip, [pc, #688]	; 8000e1c <vTask_Desloca_Principal_Colisao+0x348>
 8000b6c:	f8dc 1000 	ldr.w	r1, [ip]
 8000b70:	f101 000d 	add.w	r0, r1, #13
 8000b74:	4283      	cmp	r3, r0
 8000b76:	d211      	bcs.n	8000b9c <vTask_Desloca_Principal_Colisao+0xc8>
 8000b78:	1d58      	adds	r0, r3, #5
 8000b7a:	4281      	cmp	r1, r0
 8000b7c:	d20e      	bcs.n	8000b9c <vTask_Desloca_Principal_Colisao+0xc8>
 8000b7e:	f8dc 1004 	ldr.w	r1, [ip, #4]
 8000b82:	1d48      	adds	r0, r1, #5
 8000b84:	4290      	cmp	r0, r2
 8000b86:	d909      	bls.n	8000b9c <vTask_Desloca_Principal_Colisao+0xc8>
 8000b88:	1cd0      	adds	r0, r2, #3
 8000b8a:	4281      	cmp	r1, r0
 8000b8c:	d206      	bcs.n	8000b9c <vTask_Desloca_Principal_Colisao+0xc8>
 8000b8e:	222d      	movs	r2, #45	; 0x2d
 8000b90:	f8d8 1000 	ldr.w	r1, [r8]
 8000b94:	602e      	str	r6, [r5, #0]
 8000b96:	3901      	subs	r1, #1
 8000b98:	f8c8 1000 	str.w	r1, [r8]
 8000b9c:	f8df c280 	ldr.w	ip, [pc, #640]	; 8000e20 <vTask_Desloca_Principal_Colisao+0x34c>
 8000ba0:	f8dc 1000 	ldr.w	r1, [ip]
 8000ba4:	1d48      	adds	r0, r1, #5
 8000ba6:	4283      	cmp	r3, r0
 8000ba8:	d211      	bcs.n	8000bce <vTask_Desloca_Principal_Colisao+0xfa>
 8000baa:	1d58      	adds	r0, r3, #5
 8000bac:	4281      	cmp	r1, r0
 8000bae:	d20e      	bcs.n	8000bce <vTask_Desloca_Principal_Colisao+0xfa>
 8000bb0:	f8dc 1004 	ldr.w	r1, [ip, #4]
 8000bb4:	1d48      	adds	r0, r1, #5
 8000bb6:	4290      	cmp	r0, r2
 8000bb8:	d909      	bls.n	8000bce <vTask_Desloca_Principal_Colisao+0xfa>
 8000bba:	1cd0      	adds	r0, r2, #3
 8000bbc:	4281      	cmp	r1, r0
 8000bbe:	d206      	bcs.n	8000bce <vTask_Desloca_Principal_Colisao+0xfa>
 8000bc0:	222d      	movs	r2, #45	; 0x2d
 8000bc2:	f8d8 1000 	ldr.w	r1, [r8]
 8000bc6:	602e      	str	r6, [r5, #0]
 8000bc8:	3901      	subs	r1, #1
 8000bca:	f8c8 1000 	str.w	r1, [r8]
 8000bce:	f8df c254 	ldr.w	ip, [pc, #596]	; 8000e24 <vTask_Desloca_Principal_Colisao+0x350>
 8000bd2:	f8dc 1000 	ldr.w	r1, [ip]
 8000bd6:	1d48      	adds	r0, r1, #5
 8000bd8:	4283      	cmp	r3, r0
 8000bda:	d211      	bcs.n	8000c00 <vTask_Desloca_Principal_Colisao+0x12c>
 8000bdc:	1d58      	adds	r0, r3, #5
 8000bde:	4281      	cmp	r1, r0
 8000be0:	d20e      	bcs.n	8000c00 <vTask_Desloca_Principal_Colisao+0x12c>
 8000be2:	f8dc 1004 	ldr.w	r1, [ip, #4]
 8000be6:	1d48      	adds	r0, r1, #5
 8000be8:	4290      	cmp	r0, r2
 8000bea:	d909      	bls.n	8000c00 <vTask_Desloca_Principal_Colisao+0x12c>
 8000bec:	1cd0      	adds	r0, r2, #3
 8000bee:	4281      	cmp	r1, r0
 8000bf0:	d206      	bcs.n	8000c00 <vTask_Desloca_Principal_Colisao+0x12c>
 8000bf2:	222d      	movs	r2, #45	; 0x2d
 8000bf4:	f8d8 1000 	ldr.w	r1, [r8]
 8000bf8:	602e      	str	r6, [r5, #0]
 8000bfa:	3901      	subs	r1, #1
 8000bfc:	f8c8 1000 	str.w	r1, [r8]
 8000c00:	f8df c224 	ldr.w	ip, [pc, #548]	; 8000e28 <vTask_Desloca_Principal_Colisao+0x354>
 8000c04:	f8dc 1000 	ldr.w	r1, [ip]
 8000c08:	1dc8      	adds	r0, r1, #7
 8000c0a:	4283      	cmp	r3, r0
 8000c0c:	d211      	bcs.n	8000c32 <vTask_Desloca_Principal_Colisao+0x15e>
 8000c0e:	1d58      	adds	r0, r3, #5
 8000c10:	4281      	cmp	r1, r0
 8000c12:	d20e      	bcs.n	8000c32 <vTask_Desloca_Principal_Colisao+0x15e>
 8000c14:	f8dc 1004 	ldr.w	r1, [ip, #4]
 8000c18:	1d48      	adds	r0, r1, #5
 8000c1a:	4290      	cmp	r0, r2
 8000c1c:	d909      	bls.n	8000c32 <vTask_Desloca_Principal_Colisao+0x15e>
 8000c1e:	1cd0      	adds	r0, r2, #3
 8000c20:	4281      	cmp	r1, r0
 8000c22:	d206      	bcs.n	8000c32 <vTask_Desloca_Principal_Colisao+0x15e>
 8000c24:	222d      	movs	r2, #45	; 0x2d
 8000c26:	f8d8 1000 	ldr.w	r1, [r8]
 8000c2a:	602e      	str	r6, [r5, #0]
 8000c2c:	3901      	subs	r1, #1
 8000c2e:	f8c8 1000 	str.w	r1, [r8]
 8000c32:	f8df c1f8 	ldr.w	ip, [pc, #504]	; 8000e2c <vTask_Desloca_Principal_Colisao+0x358>
 8000c36:	f8dc 1000 	ldr.w	r1, [ip]
 8000c3a:	1dc8      	adds	r0, r1, #7
 8000c3c:	4283      	cmp	r3, r0
 8000c3e:	d211      	bcs.n	8000c64 <vTask_Desloca_Principal_Colisao+0x190>
 8000c40:	1d58      	adds	r0, r3, #5
 8000c42:	4281      	cmp	r1, r0
 8000c44:	d20e      	bcs.n	8000c64 <vTask_Desloca_Principal_Colisao+0x190>
 8000c46:	f8dc 1004 	ldr.w	r1, [ip, #4]
 8000c4a:	1d48      	adds	r0, r1, #5
 8000c4c:	4290      	cmp	r0, r2
 8000c4e:	d909      	bls.n	8000c64 <vTask_Desloca_Principal_Colisao+0x190>
 8000c50:	1cd0      	adds	r0, r2, #3
 8000c52:	4281      	cmp	r1, r0
 8000c54:	d206      	bcs.n	8000c64 <vTask_Desloca_Principal_Colisao+0x190>
 8000c56:	222d      	movs	r2, #45	; 0x2d
 8000c58:	f8d8 1000 	ldr.w	r1, [r8]
 8000c5c:	602e      	str	r6, [r5, #0]
 8000c5e:	3901      	subs	r1, #1
 8000c60:	f8c8 1000 	str.w	r1, [r8]
 8000c64:	f8df c1c8 	ldr.w	ip, [pc, #456]	; 8000e30 <vTask_Desloca_Principal_Colisao+0x35c>
 8000c68:	f8dc 1000 	ldr.w	r1, [ip]
 8000c6c:	1d48      	adds	r0, r1, #5
 8000c6e:	4283      	cmp	r3, r0
 8000c70:	d211      	bcs.n	8000c96 <vTask_Desloca_Principal_Colisao+0x1c2>
 8000c72:	1d58      	adds	r0, r3, #5
 8000c74:	4281      	cmp	r1, r0
 8000c76:	d20e      	bcs.n	8000c96 <vTask_Desloca_Principal_Colisao+0x1c2>
 8000c78:	f8dc 1004 	ldr.w	r1, [ip, #4]
 8000c7c:	1d48      	adds	r0, r1, #5
 8000c7e:	4290      	cmp	r0, r2
 8000c80:	d909      	bls.n	8000c96 <vTask_Desloca_Principal_Colisao+0x1c2>
 8000c82:	1cd0      	adds	r0, r2, #3
 8000c84:	4281      	cmp	r1, r0
 8000c86:	d206      	bcs.n	8000c96 <vTask_Desloca_Principal_Colisao+0x1c2>
 8000c88:	222d      	movs	r2, #45	; 0x2d
 8000c8a:	f8d8 1000 	ldr.w	r1, [r8]
 8000c8e:	602e      	str	r6, [r5, #0]
 8000c90:	3901      	subs	r1, #1
 8000c92:	f8c8 1000 	str.w	r1, [r8]
 8000c96:	f8df c19c 	ldr.w	ip, [pc, #412]	; 8000e34 <vTask_Desloca_Principal_Colisao+0x360>
 8000c9a:	f8dc 1000 	ldr.w	r1, [ip]
 8000c9e:	1d48      	adds	r0, r1, #5
 8000ca0:	4283      	cmp	r3, r0
 8000ca2:	d211      	bcs.n	8000cc8 <vTask_Desloca_Principal_Colisao+0x1f4>
 8000ca4:	1d58      	adds	r0, r3, #5
 8000ca6:	4281      	cmp	r1, r0
 8000ca8:	d20e      	bcs.n	8000cc8 <vTask_Desloca_Principal_Colisao+0x1f4>
 8000caa:	f8dc 1004 	ldr.w	r1, [ip, #4]
 8000cae:	1d48      	adds	r0, r1, #5
 8000cb0:	4290      	cmp	r0, r2
 8000cb2:	d909      	bls.n	8000cc8 <vTask_Desloca_Principal_Colisao+0x1f4>
 8000cb4:	1cd0      	adds	r0, r2, #3
 8000cb6:	4281      	cmp	r1, r0
 8000cb8:	d206      	bcs.n	8000cc8 <vTask_Desloca_Principal_Colisao+0x1f4>
 8000cba:	222d      	movs	r2, #45	; 0x2d
 8000cbc:	f8d8 1000 	ldr.w	r1, [r8]
 8000cc0:	602e      	str	r6, [r5, #0]
 8000cc2:	3901      	subs	r1, #1
 8000cc4:	f8c8 1000 	str.w	r1, [r8]
 8000cc8:	f8df c16c 	ldr.w	ip, [pc, #364]	; 8000e38 <vTask_Desloca_Principal_Colisao+0x364>
 8000ccc:	f8dc 1000 	ldr.w	r1, [ip]
 8000cd0:	f101 000a 	add.w	r0, r1, #10
 8000cd4:	4283      	cmp	r3, r0
 8000cd6:	d211      	bcs.n	8000cfc <vTask_Desloca_Principal_Colisao+0x228>
 8000cd8:	1d58      	adds	r0, r3, #5
 8000cda:	4281      	cmp	r1, r0
 8000cdc:	d20e      	bcs.n	8000cfc <vTask_Desloca_Principal_Colisao+0x228>
 8000cde:	f8dc 1004 	ldr.w	r1, [ip, #4]
 8000ce2:	1d48      	adds	r0, r1, #5
 8000ce4:	4290      	cmp	r0, r2
 8000ce6:	d909      	bls.n	8000cfc <vTask_Desloca_Principal_Colisao+0x228>
 8000ce8:	1cd0      	adds	r0, r2, #3
 8000cea:	4281      	cmp	r1, r0
 8000cec:	d206      	bcs.n	8000cfc <vTask_Desloca_Principal_Colisao+0x228>
 8000cee:	222d      	movs	r2, #45	; 0x2d
 8000cf0:	f8d8 1000 	ldr.w	r1, [r8]
 8000cf4:	602e      	str	r6, [r5, #0]
 8000cf6:	3901      	subs	r1, #1
 8000cf8:	f8c8 1000 	str.w	r1, [r8]
 8000cfc:	f8da 1000 	ldr.w	r1, [sl]
 8000d00:	f101 000a 	add.w	r0, r1, #10
 8000d04:	4283      	cmp	r3, r0
 8000d06:	d211      	bcs.n	8000d2c <vTask_Desloca_Principal_Colisao+0x258>
 8000d08:	1d58      	adds	r0, r3, #5
 8000d0a:	4281      	cmp	r1, r0
 8000d0c:	d20e      	bcs.n	8000d2c <vTask_Desloca_Principal_Colisao+0x258>
 8000d0e:	f8da 1004 	ldr.w	r1, [sl, #4]
 8000d12:	1d48      	adds	r0, r1, #5
 8000d14:	4290      	cmp	r0, r2
 8000d16:	d909      	bls.n	8000d2c <vTask_Desloca_Principal_Colisao+0x258>
 8000d18:	1cd0      	adds	r0, r2, #3
 8000d1a:	4281      	cmp	r1, r0
 8000d1c:	d206      	bcs.n	8000d2c <vTask_Desloca_Principal_Colisao+0x258>
 8000d1e:	222d      	movs	r2, #45	; 0x2d
 8000d20:	f8d8 1000 	ldr.w	r1, [r8]
 8000d24:	602e      	str	r6, [r5, #0]
 8000d26:	3901      	subs	r1, #1
 8000d28:	f8c8 1000 	str.w	r1, [r8]
 8000d2c:	f8db 1000 	ldr.w	r1, [fp]
 8000d30:	f101 000a 	add.w	r0, r1, #10
 8000d34:	4283      	cmp	r3, r0
 8000d36:	d211      	bcs.n	8000d5c <vTask_Desloca_Principal_Colisao+0x288>
 8000d38:	1d58      	adds	r0, r3, #5
 8000d3a:	4281      	cmp	r1, r0
 8000d3c:	d20e      	bcs.n	8000d5c <vTask_Desloca_Principal_Colisao+0x288>
 8000d3e:	f8db 1004 	ldr.w	r1, [fp, #4]
 8000d42:	1d48      	adds	r0, r1, #5
 8000d44:	4290      	cmp	r0, r2
 8000d46:	d909      	bls.n	8000d5c <vTask_Desloca_Principal_Colisao+0x288>
 8000d48:	1cd0      	adds	r0, r2, #3
 8000d4a:	4281      	cmp	r1, r0
 8000d4c:	d206      	bcs.n	8000d5c <vTask_Desloca_Principal_Colisao+0x288>
 8000d4e:	222d      	movs	r2, #45	; 0x2d
 8000d50:	f8d8 1000 	ldr.w	r1, [r8]
 8000d54:	602e      	str	r6, [r5, #0]
 8000d56:	3901      	subs	r1, #1
 8000d58:	f8c8 1000 	str.w	r1, [r8]
 8000d5c:	f8df c0dc 	ldr.w	ip, [pc, #220]	; 8000e3c <vTask_Desloca_Principal_Colisao+0x368>
 8000d60:	f8dc 1000 	ldr.w	r1, [ip]
 8000d64:	1d48      	adds	r0, r1, #5
 8000d66:	4283      	cmp	r3, r0
 8000d68:	d211      	bcs.n	8000d8e <vTask_Desloca_Principal_Colisao+0x2ba>
 8000d6a:	1d58      	adds	r0, r3, #5
 8000d6c:	4281      	cmp	r1, r0
 8000d6e:	d20e      	bcs.n	8000d8e <vTask_Desloca_Principal_Colisao+0x2ba>
 8000d70:	f8dc 1004 	ldr.w	r1, [ip, #4]
 8000d74:	1d48      	adds	r0, r1, #5
 8000d76:	4290      	cmp	r0, r2
 8000d78:	d909      	bls.n	8000d8e <vTask_Desloca_Principal_Colisao+0x2ba>
 8000d7a:	1cd0      	adds	r0, r2, #3
 8000d7c:	4281      	cmp	r1, r0
 8000d7e:	d206      	bcs.n	8000d8e <vTask_Desloca_Principal_Colisao+0x2ba>
 8000d80:	222d      	movs	r2, #45	; 0x2d
 8000d82:	f8d8 1000 	ldr.w	r1, [r8]
 8000d86:	602e      	str	r6, [r5, #0]
 8000d88:	3901      	subs	r1, #1
 8000d8a:	f8c8 1000 	str.w	r1, [r8]
 8000d8e:	f8df c0b0 	ldr.w	ip, [pc, #176]	; 8000e40 <vTask_Desloca_Principal_Colisao+0x36c>
 8000d92:	f8dc 1000 	ldr.w	r1, [ip]
 8000d96:	1d48      	adds	r0, r1, #5
 8000d98:	4283      	cmp	r3, r0
 8000d9a:	d211      	bcs.n	8000dc0 <vTask_Desloca_Principal_Colisao+0x2ec>
 8000d9c:	1d58      	adds	r0, r3, #5
 8000d9e:	4281      	cmp	r1, r0
 8000da0:	d20e      	bcs.n	8000dc0 <vTask_Desloca_Principal_Colisao+0x2ec>
 8000da2:	f8dc 1004 	ldr.w	r1, [ip, #4]
 8000da6:	1d48      	adds	r0, r1, #5
 8000da8:	4290      	cmp	r0, r2
 8000daa:	d909      	bls.n	8000dc0 <vTask_Desloca_Principal_Colisao+0x2ec>
 8000dac:	1cd0      	adds	r0, r2, #3
 8000dae:	4281      	cmp	r1, r0
 8000db0:	d206      	bcs.n	8000dc0 <vTask_Desloca_Principal_Colisao+0x2ec>
 8000db2:	222d      	movs	r2, #45	; 0x2d
 8000db4:	f8d8 1000 	ldr.w	r1, [r8]
 8000db8:	602e      	str	r6, [r5, #0]
 8000dba:	3901      	subs	r1, #1
 8000dbc:	f8c8 1000 	str.w	r1, [r8]
 8000dc0:	f8df c080 	ldr.w	ip, [pc, #128]	; 8000e44 <vTask_Desloca_Principal_Colisao+0x370>
 8000dc4:	f8dc 1000 	ldr.w	r1, [ip]
 8000dc8:	1d48      	adds	r0, r1, #5
 8000dca:	4283      	cmp	r3, r0
 8000dcc:	d211      	bcs.n	8000df2 <vTask_Desloca_Principal_Colisao+0x31e>
 8000dce:	1d58      	adds	r0, r3, #5
 8000dd0:	4281      	cmp	r1, r0
 8000dd2:	d20e      	bcs.n	8000df2 <vTask_Desloca_Principal_Colisao+0x31e>
 8000dd4:	f8dc 1004 	ldr.w	r1, [ip, #4]
 8000dd8:	1d48      	adds	r0, r1, #5
 8000dda:	4290      	cmp	r0, r2
 8000ddc:	d909      	bls.n	8000df2 <vTask_Desloca_Principal_Colisao+0x31e>
 8000dde:	1cd0      	adds	r0, r2, #3
 8000de0:	4281      	cmp	r1, r0
 8000de2:	d206      	bcs.n	8000df2 <vTask_Desloca_Principal_Colisao+0x31e>
 8000de4:	222d      	movs	r2, #45	; 0x2d
 8000de6:	f8d8 1000 	ldr.w	r1, [r8]
 8000dea:	602e      	str	r6, [r5, #0]
 8000dec:	3901      	subs	r1, #1
 8000dee:	f8c8 1000 	str.w	r1, [r8]
 8000df2:	f8df c054 	ldr.w	ip, [pc, #84]	; 8000e48 <vTask_Desloca_Principal_Colisao+0x374>
 8000df6:	f8dc 1000 	ldr.w	r1, [ip]
 8000dfa:	1d48      	adds	r0, r1, #5
 8000dfc:	4283      	cmp	r3, r0
 8000dfe:	d22f      	bcs.n	8000e60 <vTask_Desloca_Principal_Colisao+0x38c>
 8000e00:	1d58      	adds	r0, r3, #5
 8000e02:	4281      	cmp	r1, r0
 8000e04:	d22c      	bcs.n	8000e60 <vTask_Desloca_Principal_Colisao+0x38c>
 8000e06:	f8dc 1004 	ldr.w	r1, [ip, #4]
 8000e0a:	1d48      	adds	r0, r1, #5
 8000e0c:	4290      	cmp	r0, r2
 8000e0e:	d927      	bls.n	8000e60 <vTask_Desloca_Principal_Colisao+0x38c>
 8000e10:	e01c      	b.n	8000e4c <vTask_Desloca_Principal_Colisao+0x378>
 8000e12:	bf00      	nop
 8000e14:	200007a4 	.word	0x200007a4
 8000e18:	20000714 	.word	0x20000714
 8000e1c:	200006fc 	.word	0x200006fc
 8000e20:	20000864 	.word	0x20000864
 8000e24:	2000087c 	.word	0x2000087c
 8000e28:	200008cc 	.word	0x200008cc
 8000e2c:	200008b4 	.word	0x200008b4
 8000e30:	20000744 	.word	0x20000744
 8000e34:	2000072c 	.word	0x2000072c
 8000e38:	200007a8 	.word	0x200007a8
 8000e3c:	2000078c 	.word	0x2000078c
 8000e40:	2000075c 	.word	0x2000075c
 8000e44:	20000774 	.word	0x20000774
 8000e48:	200008e4 	.word	0x200008e4
 8000e4c:	1cd0      	adds	r0, r2, #3
 8000e4e:	4281      	cmp	r1, r0
 8000e50:	d206      	bcs.n	8000e60 <vTask_Desloca_Principal_Colisao+0x38c>
 8000e52:	222d      	movs	r2, #45	; 0x2d
 8000e54:	f8d8 1000 	ldr.w	r1, [r8]
 8000e58:	602e      	str	r6, [r5, #0]
 8000e5a:	3901      	subs	r1, #1
 8000e5c:	f8c8 1000 	str.w	r1, [r8]
 8000e60:	f8df c0a4 	ldr.w	ip, [pc, #164]	; 8000f08 <vTask_Desloca_Principal_Colisao+0x434>
 8000e64:	f8dc 1000 	ldr.w	r1, [ip]
 8000e68:	1d48      	adds	r0, r1, #5
 8000e6a:	4283      	cmp	r3, r0
 8000e6c:	d211      	bcs.n	8000e92 <vTask_Desloca_Principal_Colisao+0x3be>
 8000e6e:	1d58      	adds	r0, r3, #5
 8000e70:	4281      	cmp	r1, r0
 8000e72:	d20e      	bcs.n	8000e92 <vTask_Desloca_Principal_Colisao+0x3be>
 8000e74:	f8dc 1004 	ldr.w	r1, [ip, #4]
 8000e78:	1d48      	adds	r0, r1, #5
 8000e7a:	4290      	cmp	r0, r2
 8000e7c:	d909      	bls.n	8000e92 <vTask_Desloca_Principal_Colisao+0x3be>
 8000e7e:	1cd0      	adds	r0, r2, #3
 8000e80:	4281      	cmp	r1, r0
 8000e82:	d206      	bcs.n	8000e92 <vTask_Desloca_Principal_Colisao+0x3be>
 8000e84:	222d      	movs	r2, #45	; 0x2d
 8000e86:	f8d8 1000 	ldr.w	r1, [r8]
 8000e8a:	602e      	str	r6, [r5, #0]
 8000e8c:	3901      	subs	r1, #1
 8000e8e:	f8c8 1000 	str.w	r1, [r8]
 8000e92:	491e      	ldr	r1, [pc, #120]	; (8000f0c <vTask_Desloca_Principal_Colisao+0x438>)
 8000e94:	4620      	mov	r0, r4
 8000e96:	e9c4 3200 	strd	r3, r2, [r4]
 8000e9a:	f7ff fa69 	bl	8000370 <desenha_fig>
 8000e9e:	2096      	movs	r0, #150	; 0x96
 8000ea0:	f002 fa14 	bl	80032cc <vTaskDelay>
 8000ea4:	4620      	mov	r0, r4
 8000ea6:	491a      	ldr	r1, [pc, #104]	; (8000f10 <vTask_Desloca_Principal_Colisao+0x43c>)
 8000ea8:	f7ff fa62 	bl	8000370 <desenha_fig>
 8000eac:	683a      	ldr	r2, [r7, #0]
 8000eae:	687b      	ldr	r3, [r7, #4]
 8000eb0:	f5c2 6200 	rsb	r2, r2, #2048	; 0x800
 8000eb4:	2ac8      	cmp	r2, #200	; 0xc8
 8000eb6:	f5c3 6300 	rsb	r3, r3, #2048	; 0x800
 8000eba:	dd16      	ble.n	8000eea <vTask_Desloca_Principal_Colisao+0x416>
 8000ebc:	f8d9 2000 	ldr.w	r2, [r9]
 8000ec0:	b112      	cbz	r2, 8000ec8 <vTask_Desloca_Principal_Colisao+0x3f4>
 8000ec2:	3a05      	subs	r2, #5
 8000ec4:	f8c9 2000 	str.w	r2, [r9]
 8000ec8:	2bc8      	cmp	r3, #200	; 0xc8
 8000eca:	682a      	ldr	r2, [r5, #0]
 8000ecc:	f73f ae26 	bgt.w	8000b1c <vTask_Desloca_Principal_Colisao+0x48>
 8000ed0:	33c8      	adds	r3, #200	; 0xc8
 8000ed2:	f6bf ae25 	bge.w	8000b20 <vTask_Desloca_Principal_Colisao+0x4c>
 8000ed6:	2a2d      	cmp	r2, #45	; 0x2d
 8000ed8:	d811      	bhi.n	8000efe <vTask_Desloca_Principal_Colisao+0x42a>
 8000eda:	3205      	adds	r2, #5
 8000edc:	602a      	str	r2, [r5, #0]
 8000ede:	2a2d      	cmp	r2, #45	; 0x2d
 8000ee0:	f67f ae26 	bls.w	8000b30 <vTask_Desloca_Principal_Colisao+0x5c>
 8000ee4:	222d      	movs	r2, #45	; 0x2d
 8000ee6:	602e      	str	r6, [r5, #0]
 8000ee8:	e622      	b.n	8000b30 <vTask_Desloca_Principal_Colisao+0x5c>
 8000eea:	32c8      	adds	r2, #200	; 0xc8
 8000eec:	daec      	bge.n	8000ec8 <vTask_Desloca_Principal_Colisao+0x3f4>
 8000eee:	f8d9 2000 	ldr.w	r2, [r9]
 8000ef2:	2a4f      	cmp	r2, #79	; 0x4f
 8000ef4:	bf9c      	itt	ls
 8000ef6:	3205      	addls	r2, #5
 8000ef8:	f8c9 2000 	strls.w	r2, [r9]
 8000efc:	e7e4      	b.n	8000ec8 <vTask_Desloca_Principal_Colisao+0x3f4>
 8000efe:	2a32      	cmp	r2, #50	; 0x32
 8000f00:	f63f ae11 	bhi.w	8000b26 <vTask_Desloca_Principal_Colisao+0x52>
 8000f04:	e7ee      	b.n	8000ee4 <vTask_Desloca_Principal_Colisao+0x410>
 8000f06:	bf00      	nop
 8000f08:	200008fc 	.word	0x200008fc
 8000f0c:	08003ff0 	.word	0x08003ff0
 8000f10:	08003d9c 	.word	0x08003d9c

08000f14 <HAL_ADC_ConvCpltCallback>:
 8000f14:	4b05      	ldr	r3, [pc, #20]	; (8000f2c <HAL_ADC_ConvCpltCallback+0x18>)
 8000f16:	6802      	ldr	r2, [r0, #0]
 8000f18:	429a      	cmp	r2, r3
 8000f1a:	d000      	beq.n	8000f1e <HAL_ADC_ConvCpltCallback+0xa>
 8000f1c:	4770      	bx	lr
 8000f1e:	4a04      	ldr	r2, [pc, #16]	; (8000f30 <HAL_ADC_ConvCpltCallback+0x1c>)
 8000f20:	4b04      	ldr	r3, [pc, #16]	; (8000f34 <HAL_ADC_ConvCpltCallback+0x20>)
 8000f22:	6851      	ldr	r1, [r2, #4]
 8000f24:	6812      	ldr	r2, [r2, #0]
 8000f26:	e9c3 2100 	strd	r2, r1, [r3]
 8000f2a:	4770      	bx	lr
 8000f2c:	40012400 	.word	0x40012400
 8000f30:	200006f4 	.word	0x200006f4
 8000f34:	20000914 	.word	0x20000914

08000f38 <SystemClock_Config>:
 8000f38:	2300      	movs	r3, #0
 8000f3a:	b5d0      	push	{r4, r6, r7, lr}
 8000f3c:	b094      	sub	sp, #80	; 0x50
 8000f3e:	2601      	movs	r6, #1
 8000f40:	f44f 3780 	mov.w	r7, #65536	; 0x10000
 8000f44:	2101      	movs	r1, #1
 8000f46:	2402      	movs	r4, #2
 8000f48:	f44f 3280 	mov.w	r2, #65536	; 0x10000
 8000f4c:	e9cd 330f 	strd	r3, r3, [sp, #60]	; 0x3c
 8000f50:	e9cd 3306 	strd	r3, r3, [sp, #24]
 8000f54:	e9cd 3308 	strd	r3, r3, [sp, #32]
 8000f58:	e9cd 3302 	strd	r3, r3, [sp, #8]
 8000f5c:	930c      	str	r3, [sp, #48]	; 0x30
 8000f5e:	9305      	str	r3, [sp, #20]
 8000f60:	9301      	str	r3, [sp, #4]
 8000f62:	930d      	str	r3, [sp, #52]	; 0x34
 8000f64:	9304      	str	r3, [sp, #16]
 8000f66:	f44f 13e0 	mov.w	r3, #1835008	; 0x1c0000
 8000f6a:	a80a      	add	r0, sp, #40	; 0x28
 8000f6c:	e9cd 670a 	strd	r6, r7, [sp, #40]	; 0x28
 8000f70:	910e      	str	r1, [sp, #56]	; 0x38
 8000f72:	9411      	str	r4, [sp, #68]	; 0x44
 8000f74:	9212      	str	r2, [sp, #72]	; 0x48
 8000f76:	9313      	str	r3, [sp, #76]	; 0x4c
 8000f78:	f001 f910 	bl	800219c <HAL_RCC_OscConfig>
 8000f7c:	b108      	cbz	r0, 8000f82 <SystemClock_Config+0x4a>
 8000f7e:	b672      	cpsid	i
 8000f80:	e7fe      	b.n	8000f80 <SystemClock_Config+0x48>
 8000f82:	4603      	mov	r3, r0
 8000f84:	220f      	movs	r2, #15
 8000f86:	e9cd 4306 	strd	r4, r3, [sp, #24]
 8000f8a:	9309      	str	r3, [sp, #36]	; 0x24
 8000f8c:	f44f 6380 	mov.w	r3, #1024	; 0x400
 8000f90:	4621      	mov	r1, r4
 8000f92:	a805      	add	r0, sp, #20
 8000f94:	9308      	str	r3, [sp, #32]
 8000f96:	9205      	str	r2, [sp, #20]
 8000f98:	f001 faf0 	bl	800257c <HAL_RCC_ClockConfig>
 8000f9c:	b108      	cbz	r0, 8000fa2 <SystemClock_Config+0x6a>
 8000f9e:	b672      	cpsid	i
 8000fa0:	e7fe      	b.n	8000fa0 <SystemClock_Config+0x68>
 8000fa2:	f44f 4300 	mov.w	r3, #32768	; 0x8000
 8000fa6:	a801      	add	r0, sp, #4
 8000fa8:	9401      	str	r4, [sp, #4]
 8000faa:	9303      	str	r3, [sp, #12]
 8000fac:	f001 fbe6 	bl	800277c <HAL_RCCEx_PeriphCLKConfig>
 8000fb0:	b108      	cbz	r0, 8000fb6 <SystemClock_Config+0x7e>
 8000fb2:	b672      	cpsid	i
 8000fb4:	e7fe      	b.n	8000fb4 <SystemClock_Config+0x7c>
 8000fb6:	b014      	add	sp, #80	; 0x50
 8000fb8:	bdd0      	pop	{r4, r6, r7, pc}
 8000fba:	bf00      	nop

08000fbc <main>:
 8000fbc:	e92d 41f0 	stmdb	sp!, {r4, r5, r6, r7, r8, lr}
 8000fc0:	2400      	movs	r4, #0
 8000fc2:	b08a      	sub	sp, #40	; 0x28
 8000fc4:	f000 fade 	bl	8001584 <HAL_Init>
 8000fc8:	f7ff ffb6 	bl	8000f38 <SystemClock_Config>
 8000fcc:	e9cd 4406 	strd	r4, r4, [sp, #24]
 8000fd0:	e9cd 4408 	strd	r4, r4, [sp, #32]
 8000fd4:	4db3      	ldr	r5, [pc, #716]	; (80012a4 <main+0x2e8>)
 8000fd6:	f44f 5100 	mov.w	r1, #8192	; 0x2000
 8000fda:	69ab      	ldr	r3, [r5, #24]
 8000fdc:	4622      	mov	r2, r4
 8000fde:	f043 0310 	orr.w	r3, r3, #16
 8000fe2:	61ab      	str	r3, [r5, #24]
 8000fe4:	69ab      	ldr	r3, [r5, #24]
 8000fe6:	48b0      	ldr	r0, [pc, #704]	; (80012a8 <main+0x2ec>)
 8000fe8:	f003 0310 	and.w	r3, r3, #16
 8000fec:	9303      	str	r3, [sp, #12]
 8000fee:	9b03      	ldr	r3, [sp, #12]
 8000ff0:	69ab      	ldr	r3, [r5, #24]
 8000ff2:	2701      	movs	r7, #1
 8000ff4:	f043 0320 	orr.w	r3, r3, #32
 8000ff8:	61ab      	str	r3, [r5, #24]
 8000ffa:	69ab      	ldr	r3, [r5, #24]
 8000ffc:	f04f 0802 	mov.w	r8, #2
 8001000:	f003 0320 	and.w	r3, r3, #32
 8001004:	9304      	str	r3, [sp, #16]
 8001006:	9b04      	ldr	r3, [sp, #16]
 8001008:	69ab      	ldr	r3, [r5, #24]
 800100a:	4ea8      	ldr	r6, [pc, #672]	; (80012ac <main+0x2f0>)
 800100c:	f043 0304 	orr.w	r3, r3, #4
 8001010:	61ab      	str	r3, [r5, #24]
 8001012:	69ab      	ldr	r3, [r5, #24]
 8001014:	f003 0304 	and.w	r3, r3, #4
 8001018:	9305      	str	r3, [sp, #20]
 800101a:	9b05      	ldr	r3, [sp, #20]
 800101c:	f001 f8ba 	bl	8002194 <HAL_GPIO_WritePin>
 8001020:	4622      	mov	r2, r4
 8001022:	21f8      	movs	r1, #248	; 0xf8
 8001024:	48a2      	ldr	r0, [pc, #648]	; (80012b0 <main+0x2f4>)
 8001026:	f001 f8b5 	bl	8002194 <HAL_GPIO_WritePin>
 800102a:	f44f 5300 	mov.w	r3, #8192	; 0x2000
 800102e:	489e      	ldr	r0, [pc, #632]	; (80012a8 <main+0x2ec>)
 8001030:	a906      	add	r1, sp, #24
 8001032:	9306      	str	r3, [sp, #24]
 8001034:	e9cd 7407 	strd	r7, r4, [sp, #28]
 8001038:	f8cd 8024 	str.w	r8, [sp, #36]	; 0x24
 800103c:	f000 ff96 	bl	8001f6c <HAL_GPIO_Init>
 8001040:	f44f 4200 	mov.w	r2, #32768	; 0x8000
 8001044:	2300      	movs	r3, #0
 8001046:	4898      	ldr	r0, [pc, #608]	; (80012a8 <main+0x2ec>)
 8001048:	a906      	add	r1, sp, #24
 800104a:	e9cd 2306 	strd	r2, r3, [sp, #24]
 800104e:	9708      	str	r7, [sp, #32]
 8001050:	f000 ff8c 	bl	8001f6c <HAL_GPIO_Init>
 8001054:	23f8      	movs	r3, #248	; 0xf8
 8001056:	4896      	ldr	r0, [pc, #600]	; (80012b0 <main+0x2f4>)
 8001058:	a906      	add	r1, sp, #24
 800105a:	9306      	str	r3, [sp, #24]
 800105c:	e9cd 7407 	strd	r7, r4, [sp, #28]
 8001060:	f8cd 8024 	str.w	r8, [sp, #36]	; 0x24
 8001064:	f000 ff82 	bl	8001f6c <HAL_GPIO_Init>
 8001068:	696b      	ldr	r3, [r5, #20]
 800106a:	4622      	mov	r2, r4
 800106c:	433b      	orrs	r3, r7
 800106e:	616b      	str	r3, [r5, #20]
 8001070:	696b      	ldr	r3, [r5, #20]
 8001072:	2105      	movs	r1, #5
 8001074:	403b      	ands	r3, r7
 8001076:	200b      	movs	r0, #11
 8001078:	9302      	str	r3, [sp, #8]
 800107a:	9b02      	ldr	r3, [sp, #8]
 800107c:	f000 fe1c 	bl	8001cb8 <HAL_NVIC_SetPriority>
 8001080:	200b      	movs	r0, #11
 8001082:	f000 fe57 	bl	8001d34 <HAL_NVIC_EnableIRQ>
 8001086:	f44f 7380 	mov.w	r3, #256	; 0x100
 800108a:	60b3      	str	r3, [r6, #8]
 800108c:	f44f 2360 	mov.w	r3, #917504	; 0xe0000
 8001090:	61f3      	str	r3, [r6, #28]
 8001092:	4b88      	ldr	r3, [pc, #544]	; (80012b4 <main+0x2f8>)
 8001094:	4630      	mov	r0, r6
 8001096:	e9cd 4406 	strd	r4, r4, [sp, #24]
 800109a:	9408      	str	r4, [sp, #32]
 800109c:	7337      	strb	r7, [r6, #12]
 800109e:	7534      	strb	r4, [r6, #20]
 80010a0:	6074      	str	r4, [r6, #4]
 80010a2:	f8c6 8010 	str.w	r8, [r6, #16]
 80010a6:	6033      	str	r3, [r6, #0]
 80010a8:	f000 faa2 	bl	80015f0 <HAL_ADC_Init>
 80010ac:	b108      	cbz	r0, 80010b2 <main+0xf6>
 80010ae:	b672      	cpsid	i
 80010b0:	e7fe      	b.n	80010b0 <main+0xf4>
 80010b2:	2301      	movs	r3, #1
 80010b4:	2201      	movs	r2, #1
 80010b6:	e9cd 2306 	strd	r2, r3, [sp, #24]
 80010ba:	2307      	movs	r3, #7
 80010bc:	4630      	mov	r0, r6
 80010be:	a906      	add	r1, sp, #24
 80010c0:	9308      	str	r3, [sp, #32]
 80010c2:	f000 fc13 	bl	80018ec <HAL_ADC_ConfigChannel>
 80010c6:	b108      	cbz	r0, 80010cc <main+0x110>
 80010c8:	b672      	cpsid	i
 80010ca:	e7fe      	b.n	80010ca <main+0x10e>
 80010cc:	2202      	movs	r2, #2
 80010ce:	2302      	movs	r3, #2
 80010d0:	4630      	mov	r0, r6
 80010d2:	a906      	add	r1, sp, #24
 80010d4:	e9cd 2306 	strd	r2, r3, [sp, #24]
 80010d8:	f000 fc08 	bl	80018ec <HAL_ADC_ConfigChannel>
 80010dc:	b108      	cbz	r0, 80010e2 <main+0x126>
 80010de:	b672      	cpsid	i
 80010e0:	e7fe      	b.n	80010e0 <main+0x124>
 80010e2:	4642      	mov	r2, r8
 80010e4:	4974      	ldr	r1, [pc, #464]	; (80012b8 <main+0x2fc>)
 80010e6:	4630      	mov	r0, r6
 80010e8:	f000 fd48 	bl	8001b7c <HAL_ADC_Start_DMA>
 80010ec:	4630      	mov	r0, r6
 80010ee:	f000 fcdb 	bl	8001aa8 <HAL_ADC_Start_IT>
 80010f2:	f7ff f8b1 	bl	8000258 <inic_LCD>
 80010f6:	f7ff f933 	bl	8000360 <limpa_LCD>
 80010fa:	4870      	ldr	r0, [pc, #448]	; (80012bc <main+0x300>)
 80010fc:	f7ff f8e2 	bl	80002c4 <escreve2fb>
 8001100:	f7ff f8ea 	bl	80002d8 <imprime_LCD>
 8001104:	f44f 60fa 	mov.w	r0, #2000	; 0x7d0
 8001108:	f000 fa60 	bl	80015cc <HAL_Delay>
 800110c:	200d      	movs	r0, #13
 800110e:	f7ff f81f 	bl	8000150 <cmd_LCD>
 8001112:	f44f 60fa 	mov.w	r0, #2000	; 0x7d0
 8001116:	f000 fa59 	bl	80015cc <HAL_Delay>
 800111a:	200c      	movs	r0, #12
 800111c:	f7ff f818 	bl	8000150 <cmd_LCD>
 8001120:	f44f 60fa 	mov.w	r0, #2000	; 0x7d0
 8001124:	f000 fa52 	bl	80015cc <HAL_Delay>
 8001128:	f7ff f91a 	bl	8000360 <limpa_LCD>
 800112c:	4639      	mov	r1, r7
 800112e:	200a      	movs	r0, #10
 8001130:	f7ff f8b8 	bl	80002a4 <goto_XY>
 8001134:	4862      	ldr	r0, [pc, #392]	; (80012c0 <main+0x304>)
 8001136:	f7ff f8dd 	bl	80002f4 <string_LCD>
 800113a:	2103      	movs	r1, #3
 800113c:	2019      	movs	r0, #25
 800113e:	f7ff f8b1 	bl	80002a4 <goto_XY>
 8001142:	4860      	ldr	r0, [pc, #384]	; (80012c4 <main+0x308>)
 8001144:	f7ff f8d6 	bl	80002f4 <string_LCD>
 8001148:	4d57      	ldr	r5, [pc, #348]	; (80012a8 <main+0x2ec>)
 800114a:	f7ff f8c5 	bl	80002d8 <imprime_LCD>
 800114e:	e000      	b.n	8001152 <main+0x196>
 8001150:	3701      	adds	r7, #1
 8001152:	f44f 4100 	mov.w	r1, #32768	; 0x8000
 8001156:	4628      	mov	r0, r5
 8001158:	f001 f816 	bl	8002188 <HAL_GPIO_ReadPin>
 800115c:	4604      	mov	r4, r0
 800115e:	2800      	cmp	r0, #0
 8001160:	d1f6      	bne.n	8001150 <main+0x194>
 8001162:	4638      	mov	r0, r7
 8001164:	f7ff fc52 	bl	8000a0c <init_LFSR>
 8001168:	f7ff f8fa 	bl	8000360 <limpa_LCD>
 800116c:	4623      	mov	r3, r4
 800116e:	2280      	movs	r2, #128	; 0x80
 8001170:	4955      	ldr	r1, [pc, #340]	; (80012c8 <main+0x30c>)
 8001172:	e9cd 4400 	strd	r4, r4, [sp]
 8001176:	4855      	ldr	r0, [pc, #340]	; (80012cc <main+0x310>)
 8001178:	f001 fe42 	bl	8002e00 <xTaskCreate>
 800117c:	4623      	mov	r3, r4
 800117e:	2280      	movs	r2, #128	; 0x80
 8001180:	4953      	ldr	r1, [pc, #332]	; (80012d0 <main+0x314>)
 8001182:	e9cd 4400 	strd	r4, r4, [sp]
 8001186:	4853      	ldr	r0, [pc, #332]	; (80012d4 <main+0x318>)
 8001188:	f001 fe3a 	bl	8002e00 <xTaskCreate>
 800118c:	4623      	mov	r3, r4
 800118e:	2280      	movs	r2, #128	; 0x80
 8001190:	4951      	ldr	r1, [pc, #324]	; (80012d8 <main+0x31c>)
 8001192:	e9cd 4400 	strd	r4, r4, [sp]
 8001196:	4851      	ldr	r0, [pc, #324]	; (80012dc <main+0x320>)
 8001198:	f001 fe32 	bl	8002e00 <xTaskCreate>
 800119c:	2280      	movs	r2, #128	; 0x80
 800119e:	4b50      	ldr	r3, [pc, #320]	; (80012e0 <main+0x324>)
 80011a0:	4950      	ldr	r1, [pc, #320]	; (80012e4 <main+0x328>)
 80011a2:	e9cd 4400 	strd	r4, r4, [sp]
 80011a6:	4850      	ldr	r0, [pc, #320]	; (80012e8 <main+0x32c>)
 80011a8:	f001 fe2a 	bl	8002e00 <xTaskCreate>
 80011ac:	2280      	movs	r2, #128	; 0x80
 80011ae:	4b4f      	ldr	r3, [pc, #316]	; (80012ec <main+0x330>)
 80011b0:	494f      	ldr	r1, [pc, #316]	; (80012f0 <main+0x334>)
 80011b2:	e9cd 4400 	strd	r4, r4, [sp]
 80011b6:	484c      	ldr	r0, [pc, #304]	; (80012e8 <main+0x32c>)
 80011b8:	f001 fe22 	bl	8002e00 <xTaskCreate>
 80011bc:	2280      	movs	r2, #128	; 0x80
 80011be:	4b4d      	ldr	r3, [pc, #308]	; (80012f4 <main+0x338>)
 80011c0:	494d      	ldr	r1, [pc, #308]	; (80012f8 <main+0x33c>)
 80011c2:	e9cd 4400 	strd	r4, r4, [sp]
 80011c6:	4848      	ldr	r0, [pc, #288]	; (80012e8 <main+0x32c>)
 80011c8:	f001 fe1a 	bl	8002e00 <xTaskCreate>
 80011cc:	2280      	movs	r2, #128	; 0x80
 80011ce:	4b4b      	ldr	r3, [pc, #300]	; (80012fc <main+0x340>)
 80011d0:	494b      	ldr	r1, [pc, #300]	; (8001300 <main+0x344>)
 80011d2:	e9cd 4400 	strd	r4, r4, [sp]
 80011d6:	4844      	ldr	r0, [pc, #272]	; (80012e8 <main+0x32c>)
 80011d8:	f001 fe12 	bl	8002e00 <xTaskCreate>
 80011dc:	2280      	movs	r2, #128	; 0x80
 80011de:	4b49      	ldr	r3, [pc, #292]	; (8001304 <main+0x348>)
 80011e0:	4949      	ldr	r1, [pc, #292]	; (8001308 <main+0x34c>)
 80011e2:	e9cd 4400 	strd	r4, r4, [sp]
 80011e6:	4840      	ldr	r0, [pc, #256]	; (80012e8 <main+0x32c>)
 80011e8:	f001 fe0a 	bl	8002e00 <xTaskCreate>
 80011ec:	2280      	movs	r2, #128	; 0x80
 80011ee:	4b47      	ldr	r3, [pc, #284]	; (800130c <main+0x350>)
 80011f0:	4947      	ldr	r1, [pc, #284]	; (8001310 <main+0x354>)
 80011f2:	e9cd 4400 	strd	r4, r4, [sp]
 80011f6:	483c      	ldr	r0, [pc, #240]	; (80012e8 <main+0x32c>)
 80011f8:	f001 fe02 	bl	8002e00 <xTaskCreate>
 80011fc:	2280      	movs	r2, #128	; 0x80
 80011fe:	4b45      	ldr	r3, [pc, #276]	; (8001314 <main+0x358>)
 8001200:	4945      	ldr	r1, [pc, #276]	; (8001318 <main+0x35c>)
 8001202:	e9cd 4400 	strd	r4, r4, [sp]
 8001206:	4838      	ldr	r0, [pc, #224]	; (80012e8 <main+0x32c>)
 8001208:	f001 fdfa 	bl	8002e00 <xTaskCreate>
 800120c:	2280      	movs	r2, #128	; 0x80
 800120e:	4b43      	ldr	r3, [pc, #268]	; (800131c <main+0x360>)
 8001210:	4943      	ldr	r1, [pc, #268]	; (8001320 <main+0x364>)
 8001212:	e9cd 4400 	strd	r4, r4, [sp]
 8001216:	4834      	ldr	r0, [pc, #208]	; (80012e8 <main+0x32c>)
 8001218:	f001 fdf2 	bl	8002e00 <xTaskCreate>
 800121c:	2280      	movs	r2, #128	; 0x80
 800121e:	4b41      	ldr	r3, [pc, #260]	; (8001324 <main+0x368>)
 8001220:	4941      	ldr	r1, [pc, #260]	; (8001328 <main+0x36c>)
 8001222:	e9cd 4400 	strd	r4, r4, [sp]
 8001226:	4830      	ldr	r0, [pc, #192]	; (80012e8 <main+0x32c>)
 8001228:	f001 fdea 	bl	8002e00 <xTaskCreate>
 800122c:	2280      	movs	r2, #128	; 0x80
 800122e:	4b3f      	ldr	r3, [pc, #252]	; (800132c <main+0x370>)
 8001230:	493f      	ldr	r1, [pc, #252]	; (8001330 <main+0x374>)
 8001232:	e9cd 4400 	strd	r4, r4, [sp]
 8001236:	482c      	ldr	r0, [pc, #176]	; (80012e8 <main+0x32c>)
 8001238:	f001 fde2 	bl	8002e00 <xTaskCreate>
 800123c:	2280      	movs	r2, #128	; 0x80
 800123e:	4b3d      	ldr	r3, [pc, #244]	; (8001334 <main+0x378>)
 8001240:	493d      	ldr	r1, [pc, #244]	; (8001338 <main+0x37c>)
 8001242:	e9cd 4400 	strd	r4, r4, [sp]
 8001246:	4828      	ldr	r0, [pc, #160]	; (80012e8 <main+0x32c>)
 8001248:	f001 fdda 	bl	8002e00 <xTaskCreate>
 800124c:	2280      	movs	r2, #128	; 0x80
 800124e:	4b3b      	ldr	r3, [pc, #236]	; (800133c <main+0x380>)
 8001250:	493b      	ldr	r1, [pc, #236]	; (8001340 <main+0x384>)
 8001252:	e9cd 4400 	strd	r4, r4, [sp]
 8001256:	4824      	ldr	r0, [pc, #144]	; (80012e8 <main+0x32c>)
 8001258:	f001 fdd2 	bl	8002e00 <xTaskCreate>
 800125c:	2280      	movs	r2, #128	; 0x80
 800125e:	4b39      	ldr	r3, [pc, #228]	; (8001344 <main+0x388>)
 8001260:	4939      	ldr	r1, [pc, #228]	; (8001348 <main+0x38c>)
 8001262:	e9cd 4400 	strd	r4, r4, [sp]
 8001266:	4820      	ldr	r0, [pc, #128]	; (80012e8 <main+0x32c>)
 8001268:	f001 fdca 	bl	8002e00 <xTaskCreate>
 800126c:	2280      	movs	r2, #128	; 0x80
 800126e:	4b37      	ldr	r3, [pc, #220]	; (800134c <main+0x390>)
 8001270:	4937      	ldr	r1, [pc, #220]	; (8001350 <main+0x394>)
 8001272:	e9cd 4400 	strd	r4, r4, [sp]
 8001276:	481c      	ldr	r0, [pc, #112]	; (80012e8 <main+0x32c>)
 8001278:	f001 fdc2 	bl	8002e00 <xTaskCreate>
 800127c:	2280      	movs	r2, #128	; 0x80
 800127e:	4b35      	ldr	r3, [pc, #212]	; (8001354 <main+0x398>)
 8001280:	4935      	ldr	r1, [pc, #212]	; (8001358 <main+0x39c>)
 8001282:	e9cd 4400 	strd	r4, r4, [sp]
 8001286:	4818      	ldr	r0, [pc, #96]	; (80012e8 <main+0x32c>)
 8001288:	f001 fdba 	bl	8002e00 <xTaskCreate>
 800128c:	2280      	movs	r2, #128	; 0x80
 800128e:	4b33      	ldr	r3, [pc, #204]	; (800135c <main+0x3a0>)
 8001290:	4933      	ldr	r1, [pc, #204]	; (8001360 <main+0x3a4>)
 8001292:	e9cd 4400 	strd	r4, r4, [sp]
 8001296:	4814      	ldr	r0, [pc, #80]	; (80012e8 <main+0x32c>)
 8001298:	f001 fdb2 	bl	8002e00 <xTaskCreate>
 800129c:	f001 fc42 	bl	8002b24 <osKernelStart>
 80012a0:	e7fe      	b.n	80012a0 <main+0x2e4>
 80012a2:	bf00      	nop
 80012a4:	40021000 	.word	0x40021000
 80012a8:	40011000 	.word	0x40011000
 80012ac:	200007f0 	.word	0x200007f0
 80012b0:	40010800 	.word	0x40010800
 80012b4:	40012400 	.word	0x40012400
 80012b8:	200006f4 	.word	0x200006f4
 80012bc:	08003df8 	.word	0x08003df8
 80012c0:	08003c54 	.word	0x08003c54
 80012c4:	08003c60 	.word	0x08003c60
 80012c8:	08003c68 	.word	0x08003c68
 80012cc:	08000a49 	.word	0x08000a49
 80012d0:	08003c74 	.word	0x08003c74
 80012d4:	08000ad5 	.word	0x08000ad5
 80012d8:	08003c80 	.word	0x08003c80
 80012dc:	08000a9d 	.word	0x08000a9d
 80012e0:	20000188 	.word	0x20000188
 80012e4:	08003c8c 	.word	0x08003c8c
 80012e8:	08000a51 	.word	0x08000a51
 80012ec:	200001a4 	.word	0x200001a4
 80012f0:	08003c98 	.word	0x08003c98
 80012f4:	2000001c 	.word	0x2000001c
 80012f8:	08003ca4 	.word	0x08003ca4
 80012fc:	20000000 	.word	0x20000000
 8001300:	08003cb0 	.word	0x08003cb0
 8001304:	20000118 	.word	0x20000118
 8001308:	08003cbc 	.word	0x08003cbc
 800130c:	20000134 	.word	0x20000134
 8001310:	08003cc4 	.word	0x08003cc4
 8001314:	20000150 	.word	0x20000150
 8001318:	08003ccc 	.word	0x08003ccc
 800131c:	2000016c 	.word	0x2000016c
 8001320:	08003cd4 	.word	0x08003cd4
 8001324:	20000038 	.word	0x20000038
 8001328:	08003cdc 	.word	0x08003cdc
 800132c:	20000054 	.word	0x20000054
 8001330:	08003ce4 	.word	0x08003ce4
 8001334:	200000c4 	.word	0x200000c4
 8001338:	08003cec 	.word	0x08003cec
 800133c:	200000e0 	.word	0x200000e0
 8001340:	08003d00 	.word	0x08003d00
 8001344:	200000fc 	.word	0x200000fc
 8001348:	08003d14 	.word	0x08003d14
 800134c:	20000070 	.word	0x20000070
 8001350:	08003d28 	.word	0x08003d28
 8001354:	2000008c 	.word	0x2000008c
 8001358:	08003d30 	.word	0x08003d30
 800135c:	200000a8 	.word	0x200000a8
 8001360:	08003d3c 	.word	0x08003d3c

08001364 <HAL_TIM_PeriodElapsedCallback>:
 8001364:	4b03      	ldr	r3, [pc, #12]	; (8001374 <HAL_TIM_PeriodElapsedCallback+0x10>)
 8001366:	6802      	ldr	r2, [r0, #0]
 8001368:	429a      	cmp	r2, r3
 800136a:	d000      	beq.n	800136e <HAL_TIM_PeriodElapsedCallback+0xa>
 800136c:	4770      	bx	lr
 800136e:	f000 b91b 	b.w	80015a8 <HAL_IncTick>
 8001372:	bf00      	nop
 8001374:	40000800 	.word	0x40000800

08001378 <Error_Handler>:
 8001378:	b672      	cpsid	i
 800137a:	e7fe      	b.n	800137a <Error_Handler+0x2>

0800137c <HAL_MspInit>:
 800137c:	4b11      	ldr	r3, [pc, #68]	; (80013c4 <HAL_MspInit+0x48>)
 800137e:	b510      	push	{r4, lr}
 8001380:	6998      	ldr	r0, [r3, #24]
 8001382:	b082      	sub	sp, #8
 8001384:	f040 0001 	orr.w	r0, r0, #1
 8001388:	6198      	str	r0, [r3, #24]
 800138a:	699c      	ldr	r4, [r3, #24]
 800138c:	2200      	movs	r2, #0
 800138e:	f004 0401 	and.w	r4, r4, #1
 8001392:	9400      	str	r4, [sp, #0]
 8001394:	9c00      	ldr	r4, [sp, #0]
 8001396:	69dc      	ldr	r4, [r3, #28]
 8001398:	210f      	movs	r1, #15
 800139a:	f044 5480 	orr.w	r4, r4, #268435456	; 0x10000000
 800139e:	61dc      	str	r4, [r3, #28]
 80013a0:	69db      	ldr	r3, [r3, #28]
 80013a2:	f06f 0001 	mvn.w	r0, #1
 80013a6:	f003 5380 	and.w	r3, r3, #268435456	; 0x10000000
 80013aa:	9301      	str	r3, [sp, #4]
 80013ac:	9b01      	ldr	r3, [sp, #4]
 80013ae:	f000 fc83 	bl	8001cb8 <HAL_NVIC_SetPriority>
 80013b2:	4a05      	ldr	r2, [pc, #20]	; (80013c8 <HAL_MspInit+0x4c>)
 80013b4:	6853      	ldr	r3, [r2, #4]
 80013b6:	f023 63e0 	bic.w	r3, r3, #117440512	; 0x7000000
 80013ba:	f043 7300 	orr.w	r3, r3, #33554432	; 0x2000000
 80013be:	6053      	str	r3, [r2, #4]
 80013c0:	b002      	add	sp, #8
 80013c2:	bd10      	pop	{r4, pc}
 80013c4:	40021000 	.word	0x40021000
 80013c8:	40010000 	.word	0x40010000

080013cc <HAL_ADC_MspInit>:
 80013cc:	b570      	push	{r4, r5, r6, lr}
 80013ce:	2400      	movs	r4, #0
 80013d0:	4b25      	ldr	r3, [pc, #148]	; (8001468 <HAL_ADC_MspInit+0x9c>)
 80013d2:	6802      	ldr	r2, [r0, #0]
 80013d4:	b086      	sub	sp, #24
 80013d6:	429a      	cmp	r2, r3
 80013d8:	e9cd 4402 	strd	r4, r4, [sp, #8]
 80013dc:	e9cd 4404 	strd	r4, r4, [sp, #16]
 80013e0:	d001      	beq.n	80013e6 <HAL_ADC_MspInit+0x1a>
 80013e2:	b006      	add	sp, #24
 80013e4:	bd70      	pop	{r4, r5, r6, pc}
 80013e6:	f503 436c 	add.w	r3, r3, #60416	; 0xec00
 80013ea:	699a      	ldr	r2, [r3, #24]
 80013ec:	a902      	add	r1, sp, #8
 80013ee:	f442 7200 	orr.w	r2, r2, #512	; 0x200
 80013f2:	619a      	str	r2, [r3, #24]
 80013f4:	699a      	ldr	r2, [r3, #24]
 80013f6:	4605      	mov	r5, r0
 80013f8:	f402 7200 	and.w	r2, r2, #512	; 0x200
 80013fc:	9200      	str	r2, [sp, #0]
 80013fe:	9a00      	ldr	r2, [sp, #0]
 8001400:	699a      	ldr	r2, [r3, #24]
 8001402:	4e1a      	ldr	r6, [pc, #104]	; (800146c <HAL_ADC_MspInit+0xa0>)
 8001404:	f042 0204 	orr.w	r2, r2, #4
 8001408:	619a      	str	r2, [r3, #24]
 800140a:	699b      	ldr	r3, [r3, #24]
 800140c:	2206      	movs	r2, #6
 800140e:	f003 0304 	and.w	r3, r3, #4
 8001412:	9301      	str	r3, [sp, #4]
 8001414:	2303      	movs	r3, #3
 8001416:	9801      	ldr	r0, [sp, #4]
 8001418:	4815      	ldr	r0, [pc, #84]	; (8001470 <HAL_ADC_MspInit+0xa4>)
 800141a:	e9cd 2302 	strd	r2, r3, [sp, #8]
 800141e:	f000 fda5 	bl	8001f6c <HAL_GPIO_Init>
 8001422:	2380      	movs	r3, #128	; 0x80
 8001424:	4913      	ldr	r1, [pc, #76]	; (8001474 <HAL_ADC_MspInit+0xa8>)
 8001426:	f44f 7200 	mov.w	r2, #512	; 0x200
 800142a:	e9c6 1400 	strd	r1, r4, [r6]
 800142e:	60f3      	str	r3, [r6, #12]
 8001430:	f44f 6100 	mov.w	r1, #2048	; 0x800
 8001434:	2320      	movs	r3, #32
 8001436:	4630      	mov	r0, r6
 8001438:	60b4      	str	r4, [r6, #8]
 800143a:	61f4      	str	r4, [r6, #28]
 800143c:	6171      	str	r1, [r6, #20]
 800143e:	6132      	str	r2, [r6, #16]
 8001440:	61b3      	str	r3, [r6, #24]
 8001442:	f000 fc85 	bl	8001d50 <HAL_DMA_Init>
 8001446:	b958      	cbnz	r0, 8001460 <HAL_ADC_MspInit+0x94>
 8001448:	2200      	movs	r2, #0
 800144a:	2105      	movs	r1, #5
 800144c:	622e      	str	r6, [r5, #32]
 800144e:	2012      	movs	r0, #18
 8001450:	6275      	str	r5, [r6, #36]	; 0x24
 8001452:	f000 fc31 	bl	8001cb8 <HAL_NVIC_SetPriority>
 8001456:	2012      	movs	r0, #18
 8001458:	f000 fc6c 	bl	8001d34 <HAL_NVIC_EnableIRQ>
 800145c:	b006      	add	sp, #24
 800145e:	bd70      	pop	{r4, r5, r6, pc}
 8001460:	f7ff ff8a 	bl	8001378 <Error_Handler>
 8001464:	e7f0      	b.n	8001448 <HAL_ADC_MspInit+0x7c>
 8001466:	bf00      	nop
 8001468:	40012400 	.word	0x40012400
 800146c:	20000820 	.word	0x20000820
 8001470:	40010800 	.word	0x40010800
 8001474:	40020008 	.word	0x40020008

08001478 <HAL_InitTick>:
 8001478:	b530      	push	{r4, r5, lr}
 800147a:	4601      	mov	r1, r0
 800147c:	b089      	sub	sp, #36	; 0x24
 800147e:	2200      	movs	r2, #0
 8001480:	201e      	movs	r0, #30
 8001482:	f000 fc19 	bl	8001cb8 <HAL_NVIC_SetPriority>
 8001486:	201e      	movs	r0, #30
 8001488:	f000 fc54 	bl	8001d34 <HAL_NVIC_EnableIRQ>
 800148c:	4b16      	ldr	r3, [pc, #88]	; (80014e8 <HAL_InitTick+0x70>)
 800148e:	a901      	add	r1, sp, #4
 8001490:	69da      	ldr	r2, [r3, #28]
 8001492:	a803      	add	r0, sp, #12
 8001494:	f042 0204 	orr.w	r2, r2, #4
 8001498:	61da      	str	r2, [r3, #28]
 800149a:	69db      	ldr	r3, [r3, #28]
 800149c:	f240 35e7 	movw	r5, #999	; 0x3e7
 80014a0:	f003 0304 	and.w	r3, r3, #4
 80014a4:	9302      	str	r3, [sp, #8]
 80014a6:	9b02      	ldr	r3, [sp, #8]
 80014a8:	f001 f948 	bl	800273c <HAL_RCC_GetClockConfig>
 80014ac:	f001 f936 	bl	800271c <HAL_RCC_GetPCLK1Freq>
 80014b0:	4603      	mov	r3, r0
 80014b2:	2200      	movs	r2, #0
 80014b4:	490d      	ldr	r1, [pc, #52]	; (80014ec <HAL_InitTick+0x74>)
 80014b6:	005b      	lsls	r3, r3, #1
 80014b8:	fba1 1303 	umull	r1, r3, r1, r3
 80014bc:	4c0c      	ldr	r4, [pc, #48]	; (80014f0 <HAL_InitTick+0x78>)
 80014be:	480d      	ldr	r0, [pc, #52]	; (80014f4 <HAL_InitTick+0x7c>)
 80014c0:	0c9b      	lsrs	r3, r3, #18
 80014c2:	6020      	str	r0, [r4, #0]
 80014c4:	3b01      	subs	r3, #1
 80014c6:	4620      	mov	r0, r4
 80014c8:	e9c4 5203 	strd	r5, r2, [r4, #12]
 80014cc:	60a2      	str	r2, [r4, #8]
 80014ce:	6063      	str	r3, [r4, #4]
 80014d0:	f001 f9d8 	bl	8002884 <HAL_TIM_Base_Init>
 80014d4:	b110      	cbz	r0, 80014dc <HAL_InitTick+0x64>
 80014d6:	2001      	movs	r0, #1
 80014d8:	b009      	add	sp, #36	; 0x24
 80014da:	bd30      	pop	{r4, r5, pc}
 80014dc:	4620      	mov	r0, r4
 80014de:	f001 fa3f 	bl	8002960 <HAL_TIM_Base_Start_IT>
 80014e2:	b009      	add	sp, #36	; 0x24
 80014e4:	bd30      	pop	{r4, r5, pc}
 80014e6:	bf00      	nop
 80014e8:	40021000 	.word	0x40021000
 80014ec:	431bde83 	.word	0x431bde83
 80014f0:	2000091c 	.word	0x2000091c
 80014f4:	40000800 	.word	0x40000800

080014f8 <NMI_Handler>:
 80014f8:	e7fe      	b.n	80014f8 <NMI_Handler>
 80014fa:	bf00      	nop

080014fc <HardFault_Handler>:
 80014fc:	e7fe      	b.n	80014fc <HardFault_Handler>
 80014fe:	bf00      	nop

08001500 <MemManage_Handler>:
 8001500:	e7fe      	b.n	8001500 <MemManage_Handler>
 8001502:	bf00      	nop

08001504 <BusFault_Handler>:
 8001504:	e7fe      	b.n	8001504 <BusFault_Handler>
 8001506:	bf00      	nop

08001508 <UsageFault_Handler>:
 8001508:	e7fe      	b.n	8001508 <UsageFault_Handler>
 800150a:	bf00      	nop

0800150c <DebugMon_Handler>:
 800150c:	4770      	bx	lr
 800150e:	bf00      	nop

08001510 <DMA1_Channel1_IRQHandler>:
 8001510:	4801      	ldr	r0, [pc, #4]	; (8001518 <DMA1_Channel1_IRQHandler+0x8>)
 8001512:	f000 bc97 	b.w	8001e44 <HAL_DMA_IRQHandler>
 8001516:	bf00      	nop
 8001518:	20000820 	.word	0x20000820

0800151c <ADC1_2_IRQHandler>:
 800151c:	4801      	ldr	r0, [pc, #4]	; (8001524 <ADC1_2_IRQHandler+0x8>)
 800151e:	f000 b959 	b.w	80017d4 <HAL_ADC_IRQHandler>
 8001522:	bf00      	nop
 8001524:	200007f0 	.word	0x200007f0

08001528 <TIM4_IRQHandler>:
 8001528:	4801      	ldr	r0, [pc, #4]	; (8001530 <TIM4_IRQHandler+0x8>)
 800152a:	f001 ba4d 	b.w	80029c8 <HAL_TIM_IRQHandler>
 800152e:	bf00      	nop
 8001530:	2000091c 	.word	0x2000091c

08001534 <SystemInit>:
 8001534:	4770      	bx	lr
 8001536:	bf00      	nop

08001538 <Reset_Handler>:
 8001538:	2100      	movs	r1, #0
 800153a:	e003      	b.n	8001544 <LoopCopyDataInit>

0800153c <CopyDataInit>:
 800153c:	4b0b      	ldr	r3, [pc, #44]	; (800156c <LoopFillZerobss+0x14>)
 800153e:	585b      	ldr	r3, [r3, r1]
 8001540:	5043      	str	r3, [r0, r1]
 8001542:	3104      	adds	r1, #4

08001544 <LoopCopyDataInit>:
 8001544:	480a      	ldr	r0, [pc, #40]	; (8001570 <LoopFillZerobss+0x18>)
 8001546:	4b0b      	ldr	r3, [pc, #44]	; (8001574 <LoopFillZerobss+0x1c>)
 8001548:	1842      	adds	r2, r0, r1
 800154a:	429a      	cmp	r2, r3
 800154c:	d3f6      	bcc.n	800153c <CopyDataInit>
 800154e:	4a0a      	ldr	r2, [pc, #40]	; (8001578 <LoopFillZerobss+0x20>)
 8001550:	e002      	b.n	8001558 <LoopFillZerobss>

08001552 <FillZerobss>:
 8001552:	2300      	movs	r3, #0
 8001554:	f842 3b04 	str.w	r3, [r2], #4

08001558 <LoopFillZerobss>:
 8001558:	4b08      	ldr	r3, [pc, #32]	; (800157c <LoopFillZerobss+0x24>)
 800155a:	429a      	cmp	r2, r3
 800155c:	d3f9      	bcc.n	8001552 <FillZerobss>
 800155e:	f7ff ffe9 	bl	8001534 <SystemInit>
 8001562:	f002 f9dd 	bl	8003920 <__libc_init_array>
 8001566:	f7ff fd29 	bl	8000fbc <main>
 800156a:	4770      	bx	lr
 800156c:	08004034 	.word	0x08004034
 8001570:	20000000 	.word	0x20000000
 8001574:	20000228 	.word	0x20000228
 8001578:	20000228 	.word	0x20000228
 800157c:	20003bf0 	.word	0x20003bf0

08001580 <CAN1_RX1_IRQHandler>:
 8001580:	e7fe      	b.n	8001580 <CAN1_RX1_IRQHandler>
	...

08001584 <HAL_Init>:
 8001584:	4a07      	ldr	r2, [pc, #28]	; (80015a4 <HAL_Init+0x20>)
 8001586:	b508      	push	{r3, lr}
 8001588:	6813      	ldr	r3, [r2, #0]
 800158a:	2003      	movs	r0, #3
 800158c:	f043 0310 	orr.w	r3, r3, #16
 8001590:	6013      	str	r3, [r2, #0]
 8001592:	f000 fb7f 	bl	8001c94 <HAL_NVIC_SetPriorityGrouping>
 8001596:	2000      	movs	r0, #0
 8001598:	f7ff ff6e 	bl	8001478 <HAL_InitTick>
 800159c:	f7ff feee 	bl	800137c <HAL_MspInit>
 80015a0:	2000      	movs	r0, #0
 80015a2:	bd08      	pop	{r3, pc}
 80015a4:	40022000 	.word	0x40022000

080015a8 <HAL_IncTick>:
 80015a8:	4a03      	ldr	r2, [pc, #12]	; (80015b8 <HAL_IncTick+0x10>)
 80015aa:	4b04      	ldr	r3, [pc, #16]	; (80015bc <HAL_IncTick+0x14>)
 80015ac:	6811      	ldr	r1, [r2, #0]
 80015ae:	781b      	ldrb	r3, [r3, #0]
 80015b0:	440b      	add	r3, r1
 80015b2:	6013      	str	r3, [r2, #0]
 80015b4:	4770      	bx	lr
 80015b6:	bf00      	nop
 80015b8:	20000964 	.word	0x20000964
 80015bc:	200001cc 	.word	0x200001cc

080015c0 <HAL_GetTick>:
 80015c0:	4b01      	ldr	r3, [pc, #4]	; (80015c8 <HAL_GetTick+0x8>)
 80015c2:	6818      	ldr	r0, [r3, #0]
 80015c4:	4770      	bx	lr
 80015c6:	bf00      	nop
 80015c8:	20000964 	.word	0x20000964

080015cc <HAL_Delay>:
 80015cc:	b538      	push	{r3, r4, r5, lr}
 80015ce:	4604      	mov	r4, r0
 80015d0:	f7ff fff6 	bl	80015c0 <HAL_GetTick>
 80015d4:	1c63      	adds	r3, r4, #1
 80015d6:	4605      	mov	r5, r0
 80015d8:	d002      	beq.n	80015e0 <HAL_Delay+0x14>
 80015da:	4b04      	ldr	r3, [pc, #16]	; (80015ec <HAL_Delay+0x20>)
 80015dc:	781b      	ldrb	r3, [r3, #0]
 80015de:	441c      	add	r4, r3
 80015e0:	f7ff ffee 	bl	80015c0 <HAL_GetTick>
 80015e4:	1b40      	subs	r0, r0, r5
 80015e6:	42a0      	cmp	r0, r4
 80015e8:	d3fa      	bcc.n	80015e0 <HAL_Delay+0x14>
 80015ea:	bd38      	pop	{r3, r4, r5, pc}
 80015ec:	200001cc 	.word	0x200001cc

080015f0 <HAL_ADC_Init>:
 80015f0:	2800      	cmp	r0, #0
 80015f2:	f000 808b 	beq.w	800170c <HAL_ADC_Init+0x11c>
 80015f6:	b538      	push	{r3, r4, r5, lr}
 80015f8:	6a83      	ldr	r3, [r0, #40]	; 0x28
 80015fa:	4604      	mov	r4, r0
 80015fc:	2b00      	cmp	r3, #0
 80015fe:	d06d      	beq.n	80016dc <HAL_ADC_Init+0xec>
 8001600:	6823      	ldr	r3, [r4, #0]
 8001602:	689a      	ldr	r2, [r3, #8]
 8001604:	07d1      	lsls	r1, r2, #31
 8001606:	d442      	bmi.n	800168e <HAL_ADC_Init+0x9e>
 8001608:	6aa2      	ldr	r2, [r4, #40]	; 0x28
 800160a:	06d2      	lsls	r2, r2, #27
 800160c:	d460      	bmi.n	80016d0 <HAL_ADC_Init+0xe0>
 800160e:	6aa2      	ldr	r2, [r4, #40]	; 0x28
 8001610:	6861      	ldr	r1, [r4, #4]
 8001612:	69e0      	ldr	r0, [r4, #28]
 8001614:	f422 5288 	bic.w	r2, r2, #4352	; 0x1100
 8001618:	7b25      	ldrb	r5, [r4, #12]
 800161a:	f022 0202 	bic.w	r2, r2, #2
 800161e:	4301      	orrs	r1, r0
 8001620:	f042 0202 	orr.w	r2, r2, #2
 8001624:	62a2      	str	r2, [r4, #40]	; 0x28
 8001626:	ea41 0245 	orr.w	r2, r1, r5, lsl #1
 800162a:	68a1      	ldr	r1, [r4, #8]
 800162c:	f5b1 7f80 	cmp.w	r1, #256	; 0x100
 8001630:	d05a      	beq.n	80016e8 <HAL_ADC_Init+0xf8>
 8001632:	f1a1 0001 	sub.w	r0, r1, #1
 8001636:	fab0 f080 	clz	r0, r0
 800163a:	f894 c014 	ldrb.w	ip, [r4, #20]
 800163e:	0940      	lsrs	r0, r0, #5
 8001640:	f1bc 0f01 	cmp.w	ip, #1
 8001644:	ea4f 2000 	mov.w	r0, r0, lsl #8
 8001648:	d06c      	beq.n	8001724 <HAL_ADC_Init+0x134>
 800164a:	685d      	ldr	r5, [r3, #4]
 800164c:	f425 4569 	bic.w	r5, r5, #59648	; 0xe900
 8001650:	4328      	orrs	r0, r5
 8001652:	6058      	str	r0, [r3, #4]
 8001654:	689d      	ldr	r5, [r3, #8]
 8001656:	4844      	ldr	r0, [pc, #272]	; (8001768 <HAL_ADC_Init+0x178>)
 8001658:	4028      	ands	r0, r5
 800165a:	4310      	orrs	r0, r2
 800165c:	6098      	str	r0, [r3, #8]
 800165e:	2901      	cmp	r1, #1
 8001660:	d050      	beq.n	8001704 <HAL_ADC_Init+0x114>
 8001662:	2000      	movs	r0, #0
 8001664:	6ad9      	ldr	r1, [r3, #44]	; 0x2c
 8001666:	f421 0170 	bic.w	r1, r1, #15728640	; 0xf00000
 800166a:	4301      	orrs	r1, r0
 800166c:	62d9      	str	r1, [r3, #44]	; 0x2c
 800166e:	6899      	ldr	r1, [r3, #8]
 8001670:	4b3e      	ldr	r3, [pc, #248]	; (800176c <HAL_ADC_Init+0x17c>)
 8001672:	400b      	ands	r3, r1
 8001674:	429a      	cmp	r2, r3
 8001676:	d04b      	beq.n	8001710 <HAL_ADC_Init+0x120>
 8001678:	2001      	movs	r0, #1
 800167a:	6aa3      	ldr	r3, [r4, #40]	; 0x28
 800167c:	f023 0312 	bic.w	r3, r3, #18
 8001680:	f043 0310 	orr.w	r3, r3, #16
 8001684:	62a3      	str	r3, [r4, #40]	; 0x28
 8001686:	6ae3      	ldr	r3, [r4, #44]	; 0x2c
 8001688:	4303      	orrs	r3, r0
 800168a:	62e3      	str	r3, [r4, #44]	; 0x2c
 800168c:	bd38      	pop	{r3, r4, r5, pc}
 800168e:	689a      	ldr	r2, [r3, #8]
 8001690:	f022 0201 	bic.w	r2, r2, #1
 8001694:	609a      	str	r2, [r3, #8]
 8001696:	f7ff ff93 	bl	80015c0 <HAL_GetTick>
 800169a:	6823      	ldr	r3, [r4, #0]
 800169c:	4605      	mov	r5, r0
 800169e:	689a      	ldr	r2, [r3, #8]
 80016a0:	07d2      	lsls	r2, r2, #31
 80016a2:	d5b1      	bpl.n	8001608 <HAL_ADC_Init+0x18>
 80016a4:	e002      	b.n	80016ac <HAL_ADC_Init+0xbc>
 80016a6:	689a      	ldr	r2, [r3, #8]
 80016a8:	07d1      	lsls	r1, r2, #31
 80016aa:	d5ad      	bpl.n	8001608 <HAL_ADC_Init+0x18>
 80016ac:	f7ff ff88 	bl	80015c0 <HAL_GetTick>
 80016b0:	1b40      	subs	r0, r0, r5
 80016b2:	2802      	cmp	r0, #2
 80016b4:	6823      	ldr	r3, [r4, #0]
 80016b6:	d9f6      	bls.n	80016a6 <HAL_ADC_Init+0xb6>
 80016b8:	689a      	ldr	r2, [r3, #8]
 80016ba:	07d0      	lsls	r0, r2, #31
 80016bc:	d5f3      	bpl.n	80016a6 <HAL_ADC_Init+0xb6>
 80016be:	6aa3      	ldr	r3, [r4, #40]	; 0x28
 80016c0:	f043 0310 	orr.w	r3, r3, #16
 80016c4:	62a3      	str	r3, [r4, #40]	; 0x28
 80016c6:	6ae3      	ldr	r3, [r4, #44]	; 0x2c
 80016c8:	f043 0301 	orr.w	r3, r3, #1
 80016cc:	62e3      	str	r3, [r4, #44]	; 0x2c
 80016ce:	6aa3      	ldr	r3, [r4, #40]	; 0x28
 80016d0:	6aa3      	ldr	r3, [r4, #40]	; 0x28
 80016d2:	2001      	movs	r0, #1
 80016d4:	f043 0310 	orr.w	r3, r3, #16
 80016d8:	62a3      	str	r3, [r4, #40]	; 0x28
 80016da:	bd38      	pop	{r3, r4, r5, pc}
 80016dc:	62c3      	str	r3, [r0, #44]	; 0x2c
 80016de:	f880 3024 	strb.w	r3, [r0, #36]	; 0x24
 80016e2:	f7ff fe73 	bl	80013cc <HAL_ADC_MspInit>
 80016e6:	e78b      	b.n	8001600 <HAL_ADC_Init+0x10>
 80016e8:	7d20      	ldrb	r0, [r4, #20]
 80016ea:	2801      	cmp	r0, #1
 80016ec:	d019      	beq.n	8001722 <HAL_ADC_Init+0x132>
 80016ee:	6858      	ldr	r0, [r3, #4]
 80016f0:	491d      	ldr	r1, [pc, #116]	; (8001768 <HAL_ADC_Init+0x178>)
 80016f2:	f420 4069 	bic.w	r0, r0, #59648	; 0xe900
 80016f6:	f440 7080 	orr.w	r0, r0, #256	; 0x100
 80016fa:	6058      	str	r0, [r3, #4]
 80016fc:	6898      	ldr	r0, [r3, #8]
 80016fe:	4001      	ands	r1, r0
 8001700:	4311      	orrs	r1, r2
 8001702:	6099      	str	r1, [r3, #8]
 8001704:	6920      	ldr	r0, [r4, #16]
 8001706:	3801      	subs	r0, #1
 8001708:	0500      	lsls	r0, r0, #20
 800170a:	e7ab      	b.n	8001664 <HAL_ADC_Init+0x74>
 800170c:	2001      	movs	r0, #1
 800170e:	4770      	bx	lr
 8001710:	2000      	movs	r0, #0
 8001712:	62e0      	str	r0, [r4, #44]	; 0x2c
 8001714:	6aa3      	ldr	r3, [r4, #40]	; 0x28
 8001716:	f023 0303 	bic.w	r3, r3, #3
 800171a:	f043 0301 	orr.w	r3, r3, #1
 800171e:	62a3      	str	r3, [r4, #40]	; 0x28
 8001720:	bd38      	pop	{r3, r4, r5, pc}
 8001722:	4608      	mov	r0, r1
 8001724:	b1c5      	cbz	r5, 8001758 <HAL_ADC_Init+0x168>
 8001726:	6aa5      	ldr	r5, [r4, #40]	; 0x28
 8001728:	f045 0520 	orr.w	r5, r5, #32
 800172c:	62a5      	str	r5, [r4, #40]	; 0x28
 800172e:	6ae5      	ldr	r5, [r4, #44]	; 0x2c
 8001730:	f045 0501 	orr.w	r5, r5, #1
 8001734:	62e5      	str	r5, [r4, #44]	; 0x2c
 8001736:	685d      	ldr	r5, [r3, #4]
 8001738:	f5b1 7f80 	cmp.w	r1, #256	; 0x100
 800173c:	f425 4569 	bic.w	r5, r5, #59648	; 0xe900
 8001740:	ea40 0005 	orr.w	r0, r0, r5
 8001744:	6058      	str	r0, [r3, #4]
 8001746:	689d      	ldr	r5, [r3, #8]
 8001748:	4807      	ldr	r0, [pc, #28]	; (8001768 <HAL_ADC_Init+0x178>)
 800174a:	ea00 0005 	and.w	r0, r0, r5
 800174e:	ea40 0002 	orr.w	r0, r0, r2
 8001752:	6098      	str	r0, [r3, #8]
 8001754:	d183      	bne.n	800165e <HAL_ADC_Init+0x6e>
 8001756:	e7d5      	b.n	8001704 <HAL_ADC_Init+0x114>
 8001758:	69a5      	ldr	r5, [r4, #24]
 800175a:	3d01      	subs	r5, #1
 800175c:	ea40 3045 	orr.w	r0, r0, r5, lsl #13
 8001760:	f440 6000 	orr.w	r0, r0, #2048	; 0x800
 8001764:	e7e7      	b.n	8001736 <HAL_ADC_Init+0x146>
 8001766:	bf00      	nop
 8001768:	ffe1f7fd 	.word	0xffe1f7fd
 800176c:	ff1f0efe 	.word	0xff1f0efe

08001770 <ADC_DMAConvCplt>:
 8001770:	6a43      	ldr	r3, [r0, #36]	; 0x24
 8001772:	6a9a      	ldr	r2, [r3, #40]	; 0x28
 8001774:	f012 0f50 	tst.w	r2, #80	; 0x50
 8001778:	d10f      	bne.n	800179a <ADC_DMAConvCplt+0x2a>
 800177a:	6a9a      	ldr	r2, [r3, #40]	; 0x28
 800177c:	6819      	ldr	r1, [r3, #0]
 800177e:	f442 7200 	orr.w	r2, r2, #512	; 0x200
 8001782:	b510      	push	{r4, lr}
 8001784:	629a      	str	r2, [r3, #40]	; 0x28
 8001786:	688a      	ldr	r2, [r1, #8]
 8001788:	f402 2260 	and.w	r2, r2, #917504	; 0xe0000
 800178c:	f5b2 2f60 	cmp.w	r2, #917504	; 0xe0000
 8001790:	d006      	beq.n	80017a0 <ADC_DMAConvCplt+0x30>
 8001792:	4618      	mov	r0, r3
 8001794:	f7ff fbbe 	bl	8000f14 <HAL_ADC_ConvCpltCallback>
 8001798:	bd10      	pop	{r4, pc}
 800179a:	6a1b      	ldr	r3, [r3, #32]
 800179c:	6b1b      	ldr	r3, [r3, #48]	; 0x30
 800179e:	4718      	bx	r3
 80017a0:	7b1a      	ldrb	r2, [r3, #12]
 80017a2:	2a00      	cmp	r2, #0
 80017a4:	d1f5      	bne.n	8001792 <ADC_DMAConvCplt+0x22>
 80017a6:	6a9a      	ldr	r2, [r3, #40]	; 0x28
 80017a8:	f422 7280 	bic.w	r2, r2, #256	; 0x100
 80017ac:	629a      	str	r2, [r3, #40]	; 0x28
 80017ae:	6a9a      	ldr	r2, [r3, #40]	; 0x28
 80017b0:	04d2      	lsls	r2, r2, #19
 80017b2:	d4ee      	bmi.n	8001792 <ADC_DMAConvCplt+0x22>
 80017b4:	6a9a      	ldr	r2, [r3, #40]	; 0x28
 80017b6:	f042 0201 	orr.w	r2, r2, #1
 80017ba:	629a      	str	r2, [r3, #40]	; 0x28
 80017bc:	e7e9      	b.n	8001792 <ADC_DMAConvCplt+0x22>
 80017be:	bf00      	nop

080017c0 <HAL_ADC_ConvHalfCpltCallback>:
 80017c0:	4770      	bx	lr
 80017c2:	bf00      	nop

080017c4 <ADC_DMAHalfConvCplt>:
 80017c4:	b508      	push	{r3, lr}
 80017c6:	6a40      	ldr	r0, [r0, #36]	; 0x24
 80017c8:	f7ff fffa 	bl	80017c0 <HAL_ADC_ConvHalfCpltCallback>
 80017cc:	bd08      	pop	{r3, pc}
 80017ce:	bf00      	nop

080017d0 <HAL_ADC_LevelOutOfWindowCallback>:
 80017d0:	4770      	bx	lr
 80017d2:	bf00      	nop

080017d4 <HAL_ADC_IRQHandler>:
 80017d4:	6803      	ldr	r3, [r0, #0]
 80017d6:	b510      	push	{r4, lr}
 80017d8:	685a      	ldr	r2, [r3, #4]
 80017da:	4604      	mov	r4, r0
 80017dc:	0690      	lsls	r0, r2, #26
 80017de:	d502      	bpl.n	80017e6 <HAL_ADC_IRQHandler+0x12>
 80017e0:	681a      	ldr	r2, [r3, #0]
 80017e2:	0791      	lsls	r1, r2, #30
 80017e4:	d42a      	bmi.n	800183c <HAL_ADC_IRQHandler+0x68>
 80017e6:	685a      	ldr	r2, [r3, #4]
 80017e8:	0610      	lsls	r0, r2, #24
 80017ea:	d502      	bpl.n	80017f2 <HAL_ADC_IRQHandler+0x1e>
 80017ec:	681a      	ldr	r2, [r3, #0]
 80017ee:	0751      	lsls	r1, r2, #29
 80017f0:	d406      	bmi.n	8001800 <HAL_ADC_IRQHandler+0x2c>
 80017f2:	685a      	ldr	r2, [r3, #4]
 80017f4:	0652      	lsls	r2, r2, #25
 80017f6:	d502      	bpl.n	80017fe <HAL_ADC_IRQHandler+0x2a>
 80017f8:	681b      	ldr	r3, [r3, #0]
 80017fa:	07db      	lsls	r3, r3, #31
 80017fc:	d433      	bmi.n	8001866 <HAL_ADC_IRQHandler+0x92>
 80017fe:	bd10      	pop	{r4, pc}
 8001800:	6aa2      	ldr	r2, [r4, #40]	; 0x28
 8001802:	06d2      	lsls	r2, r2, #27
 8001804:	d403      	bmi.n	800180e <HAL_ADC_IRQHandler+0x3a>
 8001806:	6aa2      	ldr	r2, [r4, #40]	; 0x28
 8001808:	f442 5200 	orr.w	r2, r2, #8192	; 0x2000
 800180c:	62a2      	str	r2, [r4, #40]	; 0x28
 800180e:	689a      	ldr	r2, [r3, #8]
 8001810:	f402 42e0 	and.w	r2, r2, #28672	; 0x7000
 8001814:	f5b2 4fe0 	cmp.w	r2, #28672	; 0x7000
 8001818:	d034      	beq.n	8001884 <HAL_ADC_IRQHandler+0xb0>
 800181a:	685a      	ldr	r2, [r3, #4]
 800181c:	0550      	lsls	r0, r2, #21
 800181e:	d405      	bmi.n	800182c <HAL_ADC_IRQHandler+0x58>
 8001820:	689a      	ldr	r2, [r3, #8]
 8001822:	f402 2260 	and.w	r2, r2, #917504	; 0xe0000
 8001826:	f5b2 2f60 	cmp.w	r2, #917504	; 0xe0000
 800182a:	d028      	beq.n	800187e <HAL_ADC_IRQHandler+0xaa>
 800182c:	4620      	mov	r0, r4
 800182e:	f000 fa2f 	bl	8001c90 <HAL_ADCEx_InjectedConvCpltCallback>
 8001832:	f06f 020c 	mvn.w	r2, #12
 8001836:	6823      	ldr	r3, [r4, #0]
 8001838:	601a      	str	r2, [r3, #0]
 800183a:	e7da      	b.n	80017f2 <HAL_ADC_IRQHandler+0x1e>
 800183c:	6aa2      	ldr	r2, [r4, #40]	; 0x28
 800183e:	06d2      	lsls	r2, r2, #27
 8001840:	d403      	bmi.n	800184a <HAL_ADC_IRQHandler+0x76>
 8001842:	6aa2      	ldr	r2, [r4, #40]	; 0x28
 8001844:	f442 7200 	orr.w	r2, r2, #512	; 0x200
 8001848:	62a2      	str	r2, [r4, #40]	; 0x28
 800184a:	689a      	ldr	r2, [r3, #8]
 800184c:	f402 2260 	and.w	r2, r2, #917504	; 0xe0000
 8001850:	f5b2 2f60 	cmp.w	r2, #917504	; 0xe0000
 8001854:	d026      	beq.n	80018a4 <HAL_ADC_IRQHandler+0xd0>
 8001856:	4620      	mov	r0, r4
 8001858:	f7ff fb5c 	bl	8000f14 <HAL_ADC_ConvCpltCallback>
 800185c:	f06f 0212 	mvn.w	r2, #18
 8001860:	6823      	ldr	r3, [r4, #0]
 8001862:	601a      	str	r2, [r3, #0]
 8001864:	e7bf      	b.n	80017e6 <HAL_ADC_IRQHandler+0x12>
 8001866:	6aa3      	ldr	r3, [r4, #40]	; 0x28
 8001868:	4620      	mov	r0, r4
 800186a:	f443 3380 	orr.w	r3, r3, #65536	; 0x10000
 800186e:	62a3      	str	r3, [r4, #40]	; 0x28
 8001870:	f7ff ffae 	bl	80017d0 <HAL_ADC_LevelOutOfWindowCallback>
 8001874:	f06f 0201 	mvn.w	r2, #1
 8001878:	6823      	ldr	r3, [r4, #0]
 800187a:	601a      	str	r2, [r3, #0]
 800187c:	bd10      	pop	{r4, pc}
 800187e:	7b22      	ldrb	r2, [r4, #12]
 8001880:	2a00      	cmp	r2, #0
 8001882:	d1d3      	bne.n	800182c <HAL_ADC_IRQHandler+0x58>
 8001884:	685a      	ldr	r2, [r3, #4]
 8001886:	f022 0280 	bic.w	r2, r2, #128	; 0x80
 800188a:	605a      	str	r2, [r3, #4]
 800188c:	6aa3      	ldr	r3, [r4, #40]	; 0x28
 800188e:	f423 5380 	bic.w	r3, r3, #4096	; 0x1000
 8001892:	62a3      	str	r3, [r4, #40]	; 0x28
 8001894:	6aa3      	ldr	r3, [r4, #40]	; 0x28
 8001896:	05d9      	lsls	r1, r3, #23
 8001898:	d4c8      	bmi.n	800182c <HAL_ADC_IRQHandler+0x58>
 800189a:	6aa3      	ldr	r3, [r4, #40]	; 0x28
 800189c:	f043 0301 	orr.w	r3, r3, #1
 80018a0:	62a3      	str	r3, [r4, #40]	; 0x28
 80018a2:	e7c3      	b.n	800182c <HAL_ADC_IRQHandler+0x58>
 80018a4:	7b22      	ldrb	r2, [r4, #12]
 80018a6:	2a00      	cmp	r2, #0
 80018a8:	d1d5      	bne.n	8001856 <HAL_ADC_IRQHandler+0x82>
 80018aa:	685a      	ldr	r2, [r3, #4]
 80018ac:	f022 0220 	bic.w	r2, r2, #32
 80018b0:	605a      	str	r2, [r3, #4]
 80018b2:	6aa3      	ldr	r3, [r4, #40]	; 0x28
 80018b4:	f423 7380 	bic.w	r3, r3, #256	; 0x100
 80018b8:	62a3      	str	r3, [r4, #40]	; 0x28
 80018ba:	6aa3      	ldr	r3, [r4, #40]	; 0x28
 80018bc:	04db      	lsls	r3, r3, #19
 80018be:	d4ca      	bmi.n	8001856 <HAL_ADC_IRQHandler+0x82>
 80018c0:	6aa3      	ldr	r3, [r4, #40]	; 0x28
 80018c2:	f043 0301 	orr.w	r3, r3, #1
 80018c6:	62a3      	str	r3, [r4, #40]	; 0x28
 80018c8:	e7c5      	b.n	8001856 <HAL_ADC_IRQHandler+0x82>
 80018ca:	bf00      	nop

080018cc <HAL_ADC_ErrorCallback>:
 80018cc:	4770      	bx	lr
 80018ce:	bf00      	nop

080018d0 <ADC_DMAError>:
 80018d0:	6a40      	ldr	r0, [r0, #36]	; 0x24
 80018d2:	b508      	push	{r3, lr}
 80018d4:	6a83      	ldr	r3, [r0, #40]	; 0x28
 80018d6:	f043 0340 	orr.w	r3, r3, #64	; 0x40
 80018da:	6283      	str	r3, [r0, #40]	; 0x28
 80018dc:	6ac3      	ldr	r3, [r0, #44]	; 0x2c
 80018de:	f043 0304 	orr.w	r3, r3, #4
 80018e2:	62c3      	str	r3, [r0, #44]	; 0x2c
 80018e4:	f7ff fff2 	bl	80018cc <HAL_ADC_ErrorCallback>
 80018e8:	bd08      	pop	{r3, pc}
 80018ea:	bf00      	nop

080018ec <HAL_ADC_ConfigChannel>:
 80018ec:	2300      	movs	r3, #0
 80018ee:	b530      	push	{r4, r5, lr}
 80018f0:	b083      	sub	sp, #12
 80018f2:	9301      	str	r3, [sp, #4]
 80018f4:	f890 3024 	ldrb.w	r3, [r0, #36]	; 0x24
 80018f8:	2b01      	cmp	r3, #1
 80018fa:	d074      	beq.n	80019e6 <HAL_ADC_ConfigChannel+0xfa>
 80018fc:	2301      	movs	r3, #1
 80018fe:	f880 3024 	strb.w	r3, [r0, #36]	; 0x24
 8001902:	684b      	ldr	r3, [r1, #4]
 8001904:	4602      	mov	r2, r0
 8001906:	2b06      	cmp	r3, #6
 8001908:	6804      	ldr	r4, [r0, #0]
 800190a:	d932      	bls.n	8001972 <HAL_ADC_ConfigChannel+0x86>
 800190c:	2b0c      	cmp	r3, #12
 800190e:	eb03 0383 	add.w	r3, r3, r3, lsl #2
 8001912:	d84e      	bhi.n	80019b2 <HAL_ADC_ConfigChannel+0xc6>
 8001914:	f04f 0c1f 	mov.w	ip, #31
 8001918:	6808      	ldr	r0, [r1, #0]
 800191a:	6b25      	ldr	r5, [r4, #48]	; 0x30
 800191c:	3b23      	subs	r3, #35	; 0x23
 800191e:	fa00 fe03 	lsl.w	lr, r0, r3
 8001922:	fa0c f303 	lsl.w	r3, ip, r3
 8001926:	ea25 0303 	bic.w	r3, r5, r3
 800192a:	ea43 030e 	orr.w	r3, r3, lr
 800192e:	6323      	str	r3, [r4, #48]	; 0x30
 8001930:	2809      	cmp	r0, #9
 8001932:	d930      	bls.n	8001996 <HAL_ADC_ConfigChannel+0xaa>
 8001934:	f04f 0c07 	mov.w	ip, #7
 8001938:	688d      	ldr	r5, [r1, #8]
 800193a:	eb00 0140 	add.w	r1, r0, r0, lsl #1
 800193e:	68e3      	ldr	r3, [r4, #12]
 8001940:	391e      	subs	r1, #30
 8001942:	408d      	lsls	r5, r1
 8001944:	fa0c f101 	lsl.w	r1, ip, r1
 8001948:	ea23 0301 	bic.w	r3, r3, r1
 800194c:	f1a0 0110 	sub.w	r1, r0, #16
 8001950:	432b      	orrs	r3, r5
 8001952:	2901      	cmp	r1, #1
 8001954:	60e3      	str	r3, [r4, #12]
 8001956:	d844      	bhi.n	80019e2 <HAL_ADC_ConfigChannel+0xf6>
 8001958:	4b2e      	ldr	r3, [pc, #184]	; (8001a14 <HAL_ADC_ConfigChannel+0x128>)
 800195a:	429c      	cmp	r4, r3
 800195c:	d038      	beq.n	80019d0 <HAL_ADC_ConfigChannel+0xe4>
 800195e:	2001      	movs	r0, #1
 8001960:	6a93      	ldr	r3, [r2, #40]	; 0x28
 8001962:	f043 0320 	orr.w	r3, r3, #32
 8001966:	6293      	str	r3, [r2, #40]	; 0x28
 8001968:	2300      	movs	r3, #0
 800196a:	f882 3024 	strb.w	r3, [r2, #36]	; 0x24
 800196e:	b003      	add	sp, #12
 8001970:	bd30      	pop	{r4, r5, pc}
 8001972:	f04f 0c1f 	mov.w	ip, #31
 8001976:	6808      	ldr	r0, [r1, #0]
 8001978:	eb03 0383 	add.w	r3, r3, r3, lsl #2
 800197c:	6b65      	ldr	r5, [r4, #52]	; 0x34
 800197e:	3b05      	subs	r3, #5
 8001980:	fa00 fe03 	lsl.w	lr, r0, r3
 8001984:	fa0c f303 	lsl.w	r3, ip, r3
 8001988:	ea25 0303 	bic.w	r3, r5, r3
 800198c:	ea43 030e 	orr.w	r3, r3, lr
 8001990:	2809      	cmp	r0, #9
 8001992:	6363      	str	r3, [r4, #52]	; 0x34
 8001994:	d8ce      	bhi.n	8001934 <HAL_ADC_ConfigChannel+0x48>
 8001996:	2507      	movs	r5, #7
 8001998:	6889      	ldr	r1, [r1, #8]
 800199a:	6923      	ldr	r3, [r4, #16]
 800199c:	eb00 0040 	add.w	r0, r0, r0, lsl #1
 80019a0:	4081      	lsls	r1, r0
 80019a2:	fa05 f000 	lsl.w	r0, r5, r0
 80019a6:	ea23 0300 	bic.w	r3, r3, r0
 80019aa:	430b      	orrs	r3, r1
 80019ac:	2000      	movs	r0, #0
 80019ae:	6123      	str	r3, [r4, #16]
 80019b0:	e7da      	b.n	8001968 <HAL_ADC_ConfigChannel+0x7c>
 80019b2:	f04f 0c1f 	mov.w	ip, #31
 80019b6:	6808      	ldr	r0, [r1, #0]
 80019b8:	6ae5      	ldr	r5, [r4, #44]	; 0x2c
 80019ba:	3b41      	subs	r3, #65	; 0x41
 80019bc:	fa00 fe03 	lsl.w	lr, r0, r3
 80019c0:	fa0c f303 	lsl.w	r3, ip, r3
 80019c4:	ea25 0303 	bic.w	r3, r5, r3
 80019c8:	ea43 030e 	orr.w	r3, r3, lr
 80019cc:	62e3      	str	r3, [r4, #44]	; 0x2c
 80019ce:	e7af      	b.n	8001930 <HAL_ADC_ConfigChannel+0x44>
 80019d0:	68a3      	ldr	r3, [r4, #8]
 80019d2:	021b      	lsls	r3, r3, #8
 80019d4:	d405      	bmi.n	80019e2 <HAL_ADC_ConfigChannel+0xf6>
 80019d6:	68a3      	ldr	r3, [r4, #8]
 80019d8:	2810      	cmp	r0, #16
 80019da:	f443 0300 	orr.w	r3, r3, #8388608	; 0x800000
 80019de:	60a3      	str	r3, [r4, #8]
 80019e0:	d004      	beq.n	80019ec <HAL_ADC_ConfigChannel+0x100>
 80019e2:	2000      	movs	r0, #0
 80019e4:	e7c0      	b.n	8001968 <HAL_ADC_ConfigChannel+0x7c>
 80019e6:	2002      	movs	r0, #2
 80019e8:	b003      	add	sp, #12
 80019ea:	bd30      	pop	{r4, r5, pc}
 80019ec:	4b0a      	ldr	r3, [pc, #40]	; (8001a18 <HAL_ADC_ConfigChannel+0x12c>)
 80019ee:	490b      	ldr	r1, [pc, #44]	; (8001a1c <HAL_ADC_ConfigChannel+0x130>)
 80019f0:	681b      	ldr	r3, [r3, #0]
 80019f2:	fba1 1303 	umull	r1, r3, r1, r3
 80019f6:	0c9b      	lsrs	r3, r3, #18
 80019f8:	eb03 0383 	add.w	r3, r3, r3, lsl #2
 80019fc:	005b      	lsls	r3, r3, #1
 80019fe:	9301      	str	r3, [sp, #4]
 8001a00:	9b01      	ldr	r3, [sp, #4]
 8001a02:	2b00      	cmp	r3, #0
 8001a04:	d0ed      	beq.n	80019e2 <HAL_ADC_ConfigChannel+0xf6>
 8001a06:	9b01      	ldr	r3, [sp, #4]
 8001a08:	3b01      	subs	r3, #1
 8001a0a:	9301      	str	r3, [sp, #4]
 8001a0c:	9b01      	ldr	r3, [sp, #4]
 8001a0e:	2b00      	cmp	r3, #0
 8001a10:	d1f9      	bne.n	8001a06 <HAL_ADC_ConfigChannel+0x11a>
 8001a12:	e7e6      	b.n	80019e2 <HAL_ADC_ConfigChannel+0xf6>
 8001a14:	40012400 	.word	0x40012400
 8001a18:	200001c8 	.word	0x200001c8
 8001a1c:	431bde83 	.word	0x431bde83

08001a20 <ADC_Enable>:
 8001a20:	2300      	movs	r3, #0
 8001a22:	b530      	push	{r4, r5, lr}
 8001a24:	6802      	ldr	r2, [r0, #0]
 8001a26:	b083      	sub	sp, #12
 8001a28:	9301      	str	r3, [sp, #4]
 8001a2a:	6893      	ldr	r3, [r2, #8]
 8001a2c:	07d9      	lsls	r1, r3, #31
 8001a2e:	d427      	bmi.n	8001a80 <ADC_Enable+0x60>
 8001a30:	4b1b      	ldr	r3, [pc, #108]	; (8001aa0 <ADC_Enable+0x80>)
 8001a32:	4604      	mov	r4, r0
 8001a34:	681b      	ldr	r3, [r3, #0]
 8001a36:	481b      	ldr	r0, [pc, #108]	; (8001aa4 <ADC_Enable+0x84>)
 8001a38:	6891      	ldr	r1, [r2, #8]
 8001a3a:	fba0 0303 	umull	r0, r3, r0, r3
 8001a3e:	f041 0101 	orr.w	r1, r1, #1
 8001a42:	0c9b      	lsrs	r3, r3, #18
 8001a44:	6091      	str	r1, [r2, #8]
 8001a46:	9301      	str	r3, [sp, #4]
 8001a48:	9b01      	ldr	r3, [sp, #4]
 8001a4a:	b12b      	cbz	r3, 8001a58 <ADC_Enable+0x38>
 8001a4c:	9b01      	ldr	r3, [sp, #4]
 8001a4e:	3b01      	subs	r3, #1
 8001a50:	9301      	str	r3, [sp, #4]
 8001a52:	9b01      	ldr	r3, [sp, #4]
 8001a54:	2b00      	cmp	r3, #0
 8001a56:	d1f9      	bne.n	8001a4c <ADC_Enable+0x2c>
 8001a58:	f7ff fdb2 	bl	80015c0 <HAL_GetTick>
 8001a5c:	6823      	ldr	r3, [r4, #0]
 8001a5e:	4605      	mov	r5, r0
 8001a60:	689b      	ldr	r3, [r3, #8]
 8001a62:	07da      	lsls	r2, r3, #31
 8001a64:	d40c      	bmi.n	8001a80 <ADC_Enable+0x60>
 8001a66:	f7ff fdab 	bl	80015c0 <HAL_GetTick>
 8001a6a:	1b43      	subs	r3, r0, r5
 8001a6c:	2b02      	cmp	r3, #2
 8001a6e:	6823      	ldr	r3, [r4, #0]
 8001a70:	d903      	bls.n	8001a7a <ADC_Enable+0x5a>
 8001a72:	689a      	ldr	r2, [r3, #8]
 8001a74:	f012 0201 	ands.w	r2, r2, #1
 8001a78:	d005      	beq.n	8001a86 <ADC_Enable+0x66>
 8001a7a:	689b      	ldr	r3, [r3, #8]
 8001a7c:	07db      	lsls	r3, r3, #31
 8001a7e:	d5f2      	bpl.n	8001a66 <ADC_Enable+0x46>
 8001a80:	2000      	movs	r0, #0
 8001a82:	b003      	add	sp, #12
 8001a84:	bd30      	pop	{r4, r5, pc}
 8001a86:	2001      	movs	r0, #1
 8001a88:	6aa3      	ldr	r3, [r4, #40]	; 0x28
 8001a8a:	f884 2024 	strb.w	r2, [r4, #36]	; 0x24
 8001a8e:	f043 0310 	orr.w	r3, r3, #16
 8001a92:	62a3      	str	r3, [r4, #40]	; 0x28
 8001a94:	6ae3      	ldr	r3, [r4, #44]	; 0x2c
 8001a96:	4303      	orrs	r3, r0
 8001a98:	62e3      	str	r3, [r4, #44]	; 0x2c
 8001a9a:	b003      	add	sp, #12
 8001a9c:	bd30      	pop	{r4, r5, pc}
 8001a9e:	bf00      	nop
 8001aa0:	200001c8 	.word	0x200001c8
 8001aa4:	431bde83 	.word	0x431bde83

08001aa8 <HAL_ADC_Start_IT>:
 8001aa8:	f890 3024 	ldrb.w	r3, [r0, #36]	; 0x24
 8001aac:	2b01      	cmp	r3, #1
 8001aae:	d03d      	beq.n	8001b2c <HAL_ADC_Start_IT+0x84>
 8001ab0:	2301      	movs	r3, #1
 8001ab2:	b510      	push	{r4, lr}
 8001ab4:	f880 3024 	strb.w	r3, [r0, #36]	; 0x24
 8001ab8:	4604      	mov	r4, r0
 8001aba:	f7ff ffb1 	bl	8001a20 <ADC_Enable>
 8001abe:	2800      	cmp	r0, #0
 8001ac0:	d130      	bne.n	8001b24 <HAL_ADC_Start_IT+0x7c>
 8001ac2:	6aa3      	ldr	r3, [r4, #40]	; 0x28
 8001ac4:	6822      	ldr	r2, [r4, #0]
 8001ac6:	492b      	ldr	r1, [pc, #172]	; (8001b74 <HAL_ADC_Start_IT+0xcc>)
 8001ac8:	f423 6370 	bic.w	r3, r3, #3840	; 0xf00
 8001acc:	f023 0301 	bic.w	r3, r3, #1
 8001ad0:	f443 7380 	orr.w	r3, r3, #256	; 0x100
 8001ad4:	428a      	cmp	r2, r1
 8001ad6:	62a3      	str	r3, [r4, #40]	; 0x28
 8001ad8:	d02a      	beq.n	8001b30 <HAL_ADC_Start_IT+0x88>
 8001ada:	6aa3      	ldr	r3, [r4, #40]	; 0x28
 8001adc:	f423 1380 	bic.w	r3, r3, #1048576	; 0x100000
 8001ae0:	62a3      	str	r3, [r4, #40]	; 0x28
 8001ae2:	6853      	ldr	r3, [r2, #4]
 8001ae4:	0559      	lsls	r1, r3, #21
 8001ae6:	d42f      	bmi.n	8001b48 <HAL_ADC_Start_IT+0xa0>
 8001ae8:	6aa3      	ldr	r3, [r4, #40]	; 0x28
 8001aea:	2100      	movs	r1, #0
 8001aec:	f413 5380 	ands.w	r3, r3, #4096	; 0x1000
 8001af0:	bf18      	it	ne
 8001af2:	6ae3      	ldrne	r3, [r4, #44]	; 0x2c
 8001af4:	f884 1024 	strb.w	r1, [r4, #36]	; 0x24
 8001af8:	bf18      	it	ne
 8001afa:	f023 0306 	bicne.w	r3, r3, #6
 8001afe:	62e3      	str	r3, [r4, #44]	; 0x2c
 8001b00:	f06f 0302 	mvn.w	r3, #2
 8001b04:	6013      	str	r3, [r2, #0]
 8001b06:	6853      	ldr	r3, [r2, #4]
 8001b08:	f043 0320 	orr.w	r3, r3, #32
 8001b0c:	6053      	str	r3, [r2, #4]
 8001b0e:	6893      	ldr	r3, [r2, #8]
 8001b10:	f403 2360 	and.w	r3, r3, #917504	; 0xe0000
 8001b14:	f5b3 2f60 	cmp.w	r3, #917504	; 0xe0000
 8001b18:	d01d      	beq.n	8001b56 <HAL_ADC_Start_IT+0xae>
 8001b1a:	6893      	ldr	r3, [r2, #8]
 8001b1c:	f443 1380 	orr.w	r3, r3, #1048576	; 0x100000
 8001b20:	6093      	str	r3, [r2, #8]
 8001b22:	bd10      	pop	{r4, pc}
 8001b24:	2300      	movs	r3, #0
 8001b26:	f884 3024 	strb.w	r3, [r4, #36]	; 0x24
 8001b2a:	bd10      	pop	{r4, pc}
 8001b2c:	2002      	movs	r0, #2
 8001b2e:	4770      	bx	lr
 8001b30:	4b11      	ldr	r3, [pc, #68]	; (8001b78 <HAL_ADC_Start_IT+0xd0>)
 8001b32:	6859      	ldr	r1, [r3, #4]
 8001b34:	f411 2f70 	tst.w	r1, #983040	; 0xf0000
 8001b38:	d0cf      	beq.n	8001ada <HAL_ADC_Start_IT+0x32>
 8001b3a:	6aa1      	ldr	r1, [r4, #40]	; 0x28
 8001b3c:	f441 1180 	orr.w	r1, r1, #1048576	; 0x100000
 8001b40:	62a1      	str	r1, [r4, #40]	; 0x28
 8001b42:	685b      	ldr	r3, [r3, #4]
 8001b44:	055b      	lsls	r3, r3, #21
 8001b46:	d5cf      	bpl.n	8001ae8 <HAL_ADC_Start_IT+0x40>
 8001b48:	6aa3      	ldr	r3, [r4, #40]	; 0x28
 8001b4a:	f423 5340 	bic.w	r3, r3, #12288	; 0x3000
 8001b4e:	f443 5380 	orr.w	r3, r3, #4096	; 0x1000
 8001b52:	62a3      	str	r3, [r4, #40]	; 0x28
 8001b54:	e7c8      	b.n	8001ae8 <HAL_ADC_Start_IT+0x40>
 8001b56:	4b07      	ldr	r3, [pc, #28]	; (8001b74 <HAL_ADC_Start_IT+0xcc>)
 8001b58:	429a      	cmp	r2, r3
 8001b5a:	d004      	beq.n	8001b66 <HAL_ADC_Start_IT+0xbe>
 8001b5c:	6893      	ldr	r3, [r2, #8]
 8001b5e:	f443 03a0 	orr.w	r3, r3, #5242880	; 0x500000
 8001b62:	6093      	str	r3, [r2, #8]
 8001b64:	bd10      	pop	{r4, pc}
 8001b66:	f5a3 6380 	sub.w	r3, r3, #1024	; 0x400
 8001b6a:	685b      	ldr	r3, [r3, #4]
 8001b6c:	f413 2f70 	tst.w	r3, #983040	; 0xf0000
 8001b70:	d1d3      	bne.n	8001b1a <HAL_ADC_Start_IT+0x72>
 8001b72:	e7f3      	b.n	8001b5c <HAL_ADC_Start_IT+0xb4>
 8001b74:	40012800 	.word	0x40012800
 8001b78:	40012400 	.word	0x40012400

08001b7c <HAL_ADC_Start_DMA>:
 8001b7c:	b5f8      	push	{r3, r4, r5, r6, r7, lr}
 8001b7e:	4604      	mov	r4, r0
 8001b80:	4d3e      	ldr	r5, [pc, #248]	; (8001c7c <HAL_ADC_Start_DMA+0x100>)
 8001b82:	6800      	ldr	r0, [r0, #0]
 8001b84:	460f      	mov	r7, r1
 8001b86:	42a8      	cmp	r0, r5
 8001b88:	4616      	mov	r6, r2
 8001b8a:	d059      	beq.n	8001c40 <HAL_ADC_Start_DMA+0xc4>
 8001b8c:	4b3c      	ldr	r3, [pc, #240]	; (8001c80 <HAL_ADC_Start_DMA+0x104>)
 8001b8e:	4298      	cmp	r0, r3
 8001b90:	d056      	beq.n	8001c40 <HAL_ADC_Start_DMA+0xc4>
 8001b92:	f894 3024 	ldrb.w	r3, [r4, #36]	; 0x24
 8001b96:	2b01      	cmp	r3, #1
 8001b98:	d05f      	beq.n	8001c5a <HAL_ADC_Start_DMA+0xde>
 8001b9a:	2301      	movs	r3, #1
 8001b9c:	4620      	mov	r0, r4
 8001b9e:	f884 3024 	strb.w	r3, [r4, #36]	; 0x24
 8001ba2:	f7ff ff3d 	bl	8001a20 <ADC_Enable>
 8001ba6:	4605      	mov	r5, r0
 8001ba8:	2800      	cmp	r0, #0
 8001baa:	d151      	bne.n	8001c50 <HAL_ADC_Start_DMA+0xd4>
 8001bac:	6aa0      	ldr	r0, [r4, #40]	; 0x28
 8001bae:	6821      	ldr	r1, [r4, #0]
 8001bb0:	4b33      	ldr	r3, [pc, #204]	; (8001c80 <HAL_ADC_Start_DMA+0x104>)
 8001bb2:	f420 6070 	bic.w	r0, r0, #3840	; 0xf00
 8001bb6:	f020 0001 	bic.w	r0, r0, #1
 8001bba:	f440 7080 	orr.w	r0, r0, #256	; 0x100
 8001bbe:	4299      	cmp	r1, r3
 8001bc0:	62a0      	str	r0, [r4, #40]	; 0x28
 8001bc2:	d04d      	beq.n	8001c60 <HAL_ADC_Start_DMA+0xe4>
 8001bc4:	6aa3      	ldr	r3, [r4, #40]	; 0x28
 8001bc6:	f423 1380 	bic.w	r3, r3, #1048576	; 0x100000
 8001bca:	62a3      	str	r3, [r4, #40]	; 0x28
 8001bcc:	684b      	ldr	r3, [r1, #4]
 8001bce:	055a      	lsls	r2, r3, #21
 8001bd0:	d505      	bpl.n	8001bde <HAL_ADC_Start_DMA+0x62>
 8001bd2:	6aa3      	ldr	r3, [r4, #40]	; 0x28
 8001bd4:	f423 5340 	bic.w	r3, r3, #12288	; 0x3000
 8001bd8:	f443 5380 	orr.w	r3, r3, #4096	; 0x1000
 8001bdc:	62a3      	str	r3, [r4, #40]	; 0x28
 8001bde:	6aa3      	ldr	r3, [r4, #40]	; 0x28
 8001be0:	2000      	movs	r0, #0
 8001be2:	f413 5380 	ands.w	r3, r3, #4096	; 0x1000
 8001be6:	bf18      	it	ne
 8001be8:	6ae3      	ldrne	r3, [r4, #44]	; 0x2c
 8001bea:	f884 0024 	strb.w	r0, [r4, #36]	; 0x24
 8001bee:	bf18      	it	ne
 8001bf0:	f023 0306 	bicne.w	r3, r3, #6
 8001bf4:	62e3      	str	r3, [r4, #44]	; 0x2c
 8001bf6:	4633      	mov	r3, r6
 8001bf8:	f06f 0602 	mvn.w	r6, #2
 8001bfc:	6a20      	ldr	r0, [r4, #32]
 8001bfe:	463a      	mov	r2, r7
 8001c00:	4f20      	ldr	r7, [pc, #128]	; (8001c84 <HAL_ADC_Start_DMA+0x108>)
 8001c02:	314c      	adds	r1, #76	; 0x4c
 8001c04:	6287      	str	r7, [r0, #40]	; 0x28
 8001c06:	4f20      	ldr	r7, [pc, #128]	; (8001c88 <HAL_ADC_Start_DMA+0x10c>)
 8001c08:	62c7      	str	r7, [r0, #44]	; 0x2c
 8001c0a:	4f20      	ldr	r7, [pc, #128]	; (8001c8c <HAL_ADC_Start_DMA+0x110>)
 8001c0c:	6307      	str	r7, [r0, #48]	; 0x30
 8001c0e:	f841 6c4c 	str.w	r6, [r1, #-76]
 8001c12:	f851 6c44 	ldr.w	r6, [r1, #-68]
 8001c16:	f446 7680 	orr.w	r6, r6, #256	; 0x100
 8001c1a:	f841 6c44 	str.w	r6, [r1, #-68]
 8001c1e:	f000 f8c9 	bl	8001db4 <HAL_DMA_Start_IT>
 8001c22:	6823      	ldr	r3, [r4, #0]
 8001c24:	4628      	mov	r0, r5
 8001c26:	689a      	ldr	r2, [r3, #8]
 8001c28:	f402 2260 	and.w	r2, r2, #917504	; 0xe0000
 8001c2c:	f5b2 2f60 	cmp.w	r2, #917504	; 0xe0000
 8001c30:	689a      	ldr	r2, [r3, #8]
 8001c32:	bf0c      	ite	eq
 8001c34:	f442 02a0 	orreq.w	r2, r2, #5242880	; 0x500000
 8001c38:	f442 1280 	orrne.w	r2, r2, #1048576	; 0x100000
 8001c3c:	609a      	str	r2, [r3, #8]
 8001c3e:	bdf8      	pop	{r3, r4, r5, r6, r7, pc}
 8001c40:	4b0e      	ldr	r3, [pc, #56]	; (8001c7c <HAL_ADC_Start_DMA+0x100>)
 8001c42:	685b      	ldr	r3, [r3, #4]
 8001c44:	f413 2f70 	tst.w	r3, #983040	; 0xf0000
 8001c48:	d0a3      	beq.n	8001b92 <HAL_ADC_Start_DMA+0x16>
 8001c4a:	2501      	movs	r5, #1
 8001c4c:	4628      	mov	r0, r5
 8001c4e:	bdf8      	pop	{r3, r4, r5, r6, r7, pc}
 8001c50:	2300      	movs	r3, #0
 8001c52:	f884 3024 	strb.w	r3, [r4, #36]	; 0x24
 8001c56:	4628      	mov	r0, r5
 8001c58:	bdf8      	pop	{r3, r4, r5, r6, r7, pc}
 8001c5a:	2502      	movs	r5, #2
 8001c5c:	4628      	mov	r0, r5
 8001c5e:	bdf8      	pop	{r3, r4, r5, r6, r7, pc}
 8001c60:	f5a3 6380 	sub.w	r3, r3, #1024	; 0x400
 8001c64:	685a      	ldr	r2, [r3, #4]
 8001c66:	f412 2f70 	tst.w	r2, #983040	; 0xf0000
 8001c6a:	d0ab      	beq.n	8001bc4 <HAL_ADC_Start_DMA+0x48>
 8001c6c:	6aa2      	ldr	r2, [r4, #40]	; 0x28
 8001c6e:	f442 1280 	orr.w	r2, r2, #1048576	; 0x100000
 8001c72:	62a2      	str	r2, [r4, #40]	; 0x28
 8001c74:	685b      	ldr	r3, [r3, #4]
 8001c76:	055b      	lsls	r3, r3, #21
 8001c78:	d5b1      	bpl.n	8001bde <HAL_ADC_Start_DMA+0x62>
 8001c7a:	e7aa      	b.n	8001bd2 <HAL_ADC_Start_DMA+0x56>
 8001c7c:	40012400 	.word	0x40012400
 8001c80:	40012800 	.word	0x40012800
 8001c84:	08001771 	.word	0x08001771
 8001c88:	080017c5 	.word	0x080017c5
 8001c8c:	080018d1 	.word	0x080018d1

08001c90 <HAL_ADCEx_InjectedConvCpltCallback>:
 8001c90:	4770      	bx	lr
 8001c92:	bf00      	nop

08001c94 <HAL_NVIC_SetPriorityGrouping>:
 8001c94:	f64f 0cff 	movw	ip, #63743	; 0xf8ff
 8001c98:	4906      	ldr	r1, [pc, #24]	; (8001cb4 <HAL_NVIC_SetPriorityGrouping+0x20>)
 8001c9a:	0203      	lsls	r3, r0, #8
 8001c9c:	68ca      	ldr	r2, [r1, #12]
 8001c9e:	f403 63e0 	and.w	r3, r3, #1792	; 0x700
 8001ca2:	ea02 020c 	and.w	r2, r2, ip
 8001ca6:	4313      	orrs	r3, r2
 8001ca8:	f043 63bf 	orr.w	r3, r3, #100139008	; 0x5f80000
 8001cac:	f443 3300 	orr.w	r3, r3, #131072	; 0x20000
 8001cb0:	60cb      	str	r3, [r1, #12]
 8001cb2:	4770      	bx	lr
 8001cb4:	e000ed00 	.word	0xe000ed00

08001cb8 <HAL_NVIC_SetPriority>:
 8001cb8:	4b1c      	ldr	r3, [pc, #112]	; (8001d2c <HAL_NVIC_SetPriority+0x74>)
 8001cba:	b500      	push	{lr}
 8001cbc:	68db      	ldr	r3, [r3, #12]
 8001cbe:	f3c3 2302 	ubfx	r3, r3, #8, #3
 8001cc2:	f1c3 0e07 	rsb	lr, r3, #7
 8001cc6:	f1be 0f04 	cmp.w	lr, #4
 8001cca:	f103 0c04 	add.w	ip, r3, #4
 8001cce:	bf28      	it	cs
 8001cd0:	f04f 0e04 	movcs.w	lr, #4
 8001cd4:	f1bc 0f06 	cmp.w	ip, #6
 8001cd8:	d91b      	bls.n	8001d12 <HAL_NVIC_SetPriority+0x5a>
 8001cda:	f04f 3cff 	mov.w	ip, #4294967295
 8001cde:	3b03      	subs	r3, #3
 8001ce0:	fa0c fc03 	lsl.w	ip, ip, r3
 8001ce4:	ea22 020c 	bic.w	r2, r2, ip
 8001ce8:	f04f 3cff 	mov.w	ip, #4294967295
 8001cec:	fa0c fc0e 	lsl.w	ip, ip, lr
 8001cf0:	ea21 010c 	bic.w	r1, r1, ip
 8001cf4:	4099      	lsls	r1, r3
 8001cf6:	2800      	cmp	r0, #0
 8001cf8:	ea41 0102 	orr.w	r1, r1, r2
 8001cfc:	db0c      	blt.n	8001d18 <HAL_NVIC_SetPriority+0x60>
 8001cfe:	0109      	lsls	r1, r1, #4
 8001d00:	f100 4060 	add.w	r0, r0, #3758096384	; 0xe0000000
 8001d04:	b2c9      	uxtb	r1, r1
 8001d06:	f500 4061 	add.w	r0, r0, #57600	; 0xe100
 8001d0a:	f880 1300 	strb.w	r1, [r0, #768]	; 0x300
 8001d0e:	f85d fb04 	ldr.w	pc, [sp], #4
 8001d12:	2200      	movs	r2, #0
 8001d14:	4613      	mov	r3, r2
 8001d16:	e7e7      	b.n	8001ce8 <HAL_NVIC_SetPriority+0x30>
 8001d18:	4b05      	ldr	r3, [pc, #20]	; (8001d30 <HAL_NVIC_SetPriority+0x78>)
 8001d1a:	f000 000f 	and.w	r0, r0, #15
 8001d1e:	0109      	lsls	r1, r1, #4
 8001d20:	b2c9      	uxtb	r1, r1
 8001d22:	4403      	add	r3, r0
 8001d24:	7619      	strb	r1, [r3, #24]
 8001d26:	f85d fb04 	ldr.w	pc, [sp], #4
 8001d2a:	bf00      	nop
 8001d2c:	e000ed00 	.word	0xe000ed00
 8001d30:	e000ecfc 	.word	0xe000ecfc

08001d34 <HAL_NVIC_EnableIRQ>:
 8001d34:	2800      	cmp	r0, #0
 8001d36:	db07      	blt.n	8001d48 <HAL_NVIC_EnableIRQ+0x14>
 8001d38:	2301      	movs	r3, #1
 8001d3a:	f000 011f 	and.w	r1, r0, #31
 8001d3e:	4a03      	ldr	r2, [pc, #12]	; (8001d4c <HAL_NVIC_EnableIRQ+0x18>)
 8001d40:	0940      	lsrs	r0, r0, #5
 8001d42:	408b      	lsls	r3, r1
 8001d44:	f842 3020 	str.w	r3, [r2, r0, lsl #2]
 8001d48:	4770      	bx	lr
 8001d4a:	bf00      	nop
 8001d4c:	e000e100 	.word	0xe000e100

08001d50 <HAL_DMA_Init>:
 8001d50:	b340      	cbz	r0, 8001da4 <HAL_DMA_Init+0x54>
 8001d52:	4603      	mov	r3, r0
 8001d54:	c805      	ldmia	r0, {r0, r2}
 8001d56:	f44f 7c80 	mov.w	ip, #256	; 0x100
 8001d5a:	b430      	push	{r4, r5}
 8001d5c:	2400      	movs	r4, #0
 8001d5e:	6899      	ldr	r1, [r3, #8]
 8001d60:	68dd      	ldr	r5, [r3, #12]
 8001d62:	430a      	orrs	r2, r1
 8001d64:	4910      	ldr	r1, [pc, #64]	; (8001da8 <HAL_DMA_Init+0x58>)
 8001d66:	432a      	orrs	r2, r5
 8001d68:	4d10      	ldr	r5, [pc, #64]	; (8001dac <HAL_DMA_Init+0x5c>)
 8001d6a:	4401      	add	r1, r0
 8001d6c:	fba5 5101 	umull	r5, r1, r5, r1
 8001d70:	0909      	lsrs	r1, r1, #4
 8001d72:	0089      	lsls	r1, r1, #2
 8001d74:	6419      	str	r1, [r3, #64]	; 0x40
 8001d76:	6919      	ldr	r1, [r3, #16]
 8001d78:	699d      	ldr	r5, [r3, #24]
 8001d7a:	430a      	orrs	r2, r1
 8001d7c:	6959      	ldr	r1, [r3, #20]
 8001d7e:	430a      	orrs	r2, r1
 8001d80:	6801      	ldr	r1, [r0, #0]
 8001d82:	432a      	orrs	r2, r5
 8001d84:	69dd      	ldr	r5, [r3, #28]
 8001d86:	f421 517f 	bic.w	r1, r1, #16320	; 0x3fc0
 8001d8a:	f021 0130 	bic.w	r1, r1, #48	; 0x30
 8001d8e:	432a      	orrs	r2, r5
 8001d90:	430a      	orrs	r2, r1
 8001d92:	4907      	ldr	r1, [pc, #28]	; (8001db0 <HAL_DMA_Init+0x60>)
 8001d94:	63d9      	str	r1, [r3, #60]	; 0x3c
 8001d96:	6002      	str	r2, [r0, #0]
 8001d98:	f8a3 c020 	strh.w	ip, [r3, #32]
 8001d9c:	4620      	mov	r0, r4
 8001d9e:	639c      	str	r4, [r3, #56]	; 0x38
 8001da0:	bc30      	pop	{r4, r5}
 8001da2:	4770      	bx	lr
 8001da4:	2001      	movs	r0, #1
 8001da6:	4770      	bx	lr
 8001da8:	bffdfff8 	.word	0xbffdfff8
 8001dac:	cccccccd 	.word	0xcccccccd
 8001db0:	40020000 	.word	0x40020000

08001db4 <HAL_DMA_Start_IT>:
 8001db4:	4684      	mov	ip, r0
 8001db6:	f890 0020 	ldrb.w	r0, [r0, #32]
 8001dba:	2801      	cmp	r0, #1
 8001dbc:	d03f      	beq.n	8001e3e <HAL_DMA_Start_IT+0x8a>
 8001dbe:	b430      	push	{r4, r5}
 8001dc0:	2401      	movs	r4, #1
 8001dc2:	f89c 0021 	ldrb.w	r0, [ip, #33]	; 0x21
 8001dc6:	f88c 4020 	strb.w	r4, [ip, #32]
 8001dca:	42a0      	cmp	r0, r4
 8001dcc:	d005      	beq.n	8001dda <HAL_DMA_Start_IT+0x26>
 8001dce:	2300      	movs	r3, #0
 8001dd0:	f88c 3020 	strb.w	r3, [ip, #32]
 8001dd4:	2002      	movs	r0, #2
 8001dd6:	bc30      	pop	{r4, r5}
 8001dd8:	4770      	bx	lr
 8001dda:	2402      	movs	r4, #2
 8001ddc:	f88c 4021 	strb.w	r4, [ip, #33]	; 0x21
 8001de0:	2400      	movs	r4, #0
 8001de2:	f8dc 5040 	ldr.w	r5, [ip, #64]	; 0x40
 8001de6:	f8cc 4038 	str.w	r4, [ip, #56]	; 0x38
 8001dea:	f8dc 4000 	ldr.w	r4, [ip]
 8001dee:	40a8      	lsls	r0, r5
 8001df0:	6825      	ldr	r5, [r4, #0]
 8001df2:	f025 0501 	bic.w	r5, r5, #1
 8001df6:	6025      	str	r5, [r4, #0]
 8001df8:	f8dc 503c 	ldr.w	r5, [ip, #60]	; 0x3c
 8001dfc:	6068      	str	r0, [r5, #4]
 8001dfe:	6063      	str	r3, [r4, #4]
 8001e00:	f8dc 3004 	ldr.w	r3, [ip, #4]
 8001e04:	2b10      	cmp	r3, #16
 8001e06:	f8dc 302c 	ldr.w	r3, [ip, #44]	; 0x2c
 8001e0a:	bf0b      	itete	eq
 8001e0c:	60a2      	streq	r2, [r4, #8]
 8001e0e:	60a1      	strne	r1, [r4, #8]
 8001e10:	60e1      	streq	r1, [r4, #12]
 8001e12:	60e2      	strne	r2, [r4, #12]
 8001e14:	b153      	cbz	r3, 8001e2c <HAL_DMA_Start_IT+0x78>
 8001e16:	6823      	ldr	r3, [r4, #0]
 8001e18:	f043 030e 	orr.w	r3, r3, #14
 8001e1c:	6023      	str	r3, [r4, #0]
 8001e1e:	6823      	ldr	r3, [r4, #0]
 8001e20:	2000      	movs	r0, #0
 8001e22:	f043 0301 	orr.w	r3, r3, #1
 8001e26:	6023      	str	r3, [r4, #0]
 8001e28:	bc30      	pop	{r4, r5}
 8001e2a:	4770      	bx	lr
 8001e2c:	6823      	ldr	r3, [r4, #0]
 8001e2e:	f023 0304 	bic.w	r3, r3, #4
 8001e32:	6023      	str	r3, [r4, #0]
 8001e34:	6823      	ldr	r3, [r4, #0]
 8001e36:	f043 030a 	orr.w	r3, r3, #10
 8001e3a:	6023      	str	r3, [r4, #0]
 8001e3c:	e7ef      	b.n	8001e1e <HAL_DMA_Start_IT+0x6a>
 8001e3e:	2002      	movs	r0, #2
 8001e40:	4770      	bx	lr
 8001e42:	bf00      	nop

08001e44 <HAL_DMA_IRQHandler>:
 8001e44:	2204      	movs	r2, #4
 8001e46:	b470      	push	{r4, r5, r6}
 8001e48:	6bc6      	ldr	r6, [r0, #60]	; 0x3c
 8001e4a:	6c01      	ldr	r1, [r0, #64]	; 0x40
 8001e4c:	6834      	ldr	r4, [r6, #0]
 8001e4e:	6803      	ldr	r3, [r0, #0]
 8001e50:	408a      	lsls	r2, r1
 8001e52:	4222      	tst	r2, r4
 8001e54:	681d      	ldr	r5, [r3, #0]
 8001e56:	d01f      	beq.n	8001e98 <HAL_DMA_IRQHandler+0x54>
 8001e58:	076a      	lsls	r2, r5, #29
 8001e5a:	d51d      	bpl.n	8001e98 <HAL_DMA_IRQHandler+0x54>
 8001e5c:	681a      	ldr	r2, [r3, #0]
 8001e5e:	0691      	lsls	r1, r2, #26
 8001e60:	d403      	bmi.n	8001e6a <HAL_DMA_IRQHandler+0x26>
 8001e62:	681a      	ldr	r2, [r3, #0]
 8001e64:	f022 0204 	bic.w	r2, r2, #4
 8001e68:	601a      	str	r2, [r3, #0]
 8001e6a:	4a3e      	ldr	r2, [pc, #248]	; (8001f64 <HAL_DMA_IRQHandler+0x120>)
 8001e6c:	4293      	cmp	r3, r2
 8001e6e:	d05a      	beq.n	8001f26 <HAL_DMA_IRQHandler+0xe2>
 8001e70:	3214      	adds	r2, #20
 8001e72:	4293      	cmp	r3, r2
 8001e74:	d05f      	beq.n	8001f36 <HAL_DMA_IRQHandler+0xf2>
 8001e76:	3214      	adds	r2, #20
 8001e78:	4293      	cmp	r3, r2
 8001e7a:	d066      	beq.n	8001f4a <HAL_DMA_IRQHandler+0x106>
 8001e7c:	3214      	adds	r2, #20
 8001e7e:	4293      	cmp	r3, r2
 8001e80:	d069      	beq.n	8001f56 <HAL_DMA_IRQHandler+0x112>
 8001e82:	3214      	adds	r2, #20
 8001e84:	4293      	cmp	r3, r2
 8001e86:	d05b      	beq.n	8001f40 <HAL_DMA_IRQHandler+0xfc>
 8001e88:	3214      	adds	r2, #20
 8001e8a:	4293      	cmp	r3, r2
 8001e8c:	bf0c      	ite	eq
 8001e8e:	f44f 0280 	moveq.w	r2, #4194304	; 0x400000
 8001e92:	f04f 6280 	movne.w	r2, #67108864	; 0x4000000
 8001e96:	e047      	b.n	8001f28 <HAL_DMA_IRQHandler+0xe4>
 8001e98:	2202      	movs	r2, #2
 8001e9a:	408a      	lsls	r2, r1
 8001e9c:	4222      	tst	r2, r4
 8001e9e:	d022      	beq.n	8001ee6 <HAL_DMA_IRQHandler+0xa2>
 8001ea0:	07aa      	lsls	r2, r5, #30
 8001ea2:	d520      	bpl.n	8001ee6 <HAL_DMA_IRQHandler+0xa2>
 8001ea4:	681a      	ldr	r2, [r3, #0]
 8001ea6:	0691      	lsls	r1, r2, #26
 8001ea8:	d406      	bmi.n	8001eb8 <HAL_DMA_IRQHandler+0x74>
 8001eaa:	2101      	movs	r1, #1
 8001eac:	681a      	ldr	r2, [r3, #0]
 8001eae:	f022 020a 	bic.w	r2, r2, #10
 8001eb2:	601a      	str	r2, [r3, #0]
 8001eb4:	f880 1021 	strb.w	r1, [r0, #33]	; 0x21
 8001eb8:	4a2a      	ldr	r2, [pc, #168]	; (8001f64 <HAL_DMA_IRQHandler+0x120>)
 8001eba:	4293      	cmp	r3, r2
 8001ebc:	d029      	beq.n	8001f12 <HAL_DMA_IRQHandler+0xce>
 8001ebe:	3214      	adds	r2, #20
 8001ec0:	4293      	cmp	r3, r2
 8001ec2:	d040      	beq.n	8001f46 <HAL_DMA_IRQHandler+0x102>
 8001ec4:	3214      	adds	r2, #20
 8001ec6:	4293      	cmp	r3, r2
 8001ec8:	d042      	beq.n	8001f50 <HAL_DMA_IRQHandler+0x10c>
 8001eca:	3214      	adds	r2, #20
 8001ecc:	4293      	cmp	r3, r2
 8001ece:	d034      	beq.n	8001f3a <HAL_DMA_IRQHandler+0xf6>
 8001ed0:	3214      	adds	r2, #20
 8001ed2:	4293      	cmp	r3, r2
 8001ed4:	d042      	beq.n	8001f5c <HAL_DMA_IRQHandler+0x118>
 8001ed6:	3214      	adds	r2, #20
 8001ed8:	4293      	cmp	r3, r2
 8001eda:	bf0c      	ite	eq
 8001edc:	f44f 1200 	moveq.w	r2, #2097152	; 0x200000
 8001ee0:	f04f 7200 	movne.w	r2, #33554432	; 0x2000000
 8001ee4:	e016      	b.n	8001f14 <HAL_DMA_IRQHandler+0xd0>
 8001ee6:	2208      	movs	r2, #8
 8001ee8:	408a      	lsls	r2, r1
 8001eea:	4222      	tst	r2, r4
 8001eec:	d019      	beq.n	8001f22 <HAL_DMA_IRQHandler+0xde>
 8001eee:	072a      	lsls	r2, r5, #28
 8001ef0:	d517      	bpl.n	8001f22 <HAL_DMA_IRQHandler+0xde>
 8001ef2:	681a      	ldr	r2, [r3, #0]
 8001ef4:	f44f 7480 	mov.w	r4, #256	; 0x100
 8001ef8:	f022 020e 	bic.w	r2, r2, #14
 8001efc:	601a      	str	r2, [r3, #0]
 8001efe:	2301      	movs	r3, #1
 8001f00:	6b02      	ldr	r2, [r0, #48]	; 0x30
 8001f02:	fa03 f101 	lsl.w	r1, r3, r1
 8001f06:	6071      	str	r1, [r6, #4]
 8001f08:	6383      	str	r3, [r0, #56]	; 0x38
 8001f0a:	8404      	strh	r4, [r0, #32]
 8001f0c:	b14a      	cbz	r2, 8001f22 <HAL_DMA_IRQHandler+0xde>
 8001f0e:	bc70      	pop	{r4, r5, r6}
 8001f10:	4710      	bx	r2
 8001f12:	2202      	movs	r2, #2
 8001f14:	2100      	movs	r1, #0
 8001f16:	4c14      	ldr	r4, [pc, #80]	; (8001f68 <HAL_DMA_IRQHandler+0x124>)
 8001f18:	6a83      	ldr	r3, [r0, #40]	; 0x28
 8001f1a:	6062      	str	r2, [r4, #4]
 8001f1c:	f880 1020 	strb.w	r1, [r0, #32]
 8001f20:	b93b      	cbnz	r3, 8001f32 <HAL_DMA_IRQHandler+0xee>
 8001f22:	bc70      	pop	{r4, r5, r6}
 8001f24:	4770      	bx	lr
 8001f26:	2204      	movs	r2, #4
 8001f28:	490f      	ldr	r1, [pc, #60]	; (8001f68 <HAL_DMA_IRQHandler+0x124>)
 8001f2a:	6ac3      	ldr	r3, [r0, #44]	; 0x2c
 8001f2c:	604a      	str	r2, [r1, #4]
 8001f2e:	2b00      	cmp	r3, #0
 8001f30:	d0f7      	beq.n	8001f22 <HAL_DMA_IRQHandler+0xde>
 8001f32:	bc70      	pop	{r4, r5, r6}
 8001f34:	4718      	bx	r3
 8001f36:	2240      	movs	r2, #64	; 0x40
 8001f38:	e7f6      	b.n	8001f28 <HAL_DMA_IRQHandler+0xe4>
 8001f3a:	f44f 5200 	mov.w	r2, #8192	; 0x2000
 8001f3e:	e7e9      	b.n	8001f14 <HAL_DMA_IRQHandler+0xd0>
 8001f40:	f44f 2280 	mov.w	r2, #262144	; 0x40000
 8001f44:	e7f0      	b.n	8001f28 <HAL_DMA_IRQHandler+0xe4>
 8001f46:	2220      	movs	r2, #32
 8001f48:	e7e4      	b.n	8001f14 <HAL_DMA_IRQHandler+0xd0>
 8001f4a:	f44f 6280 	mov.w	r2, #1024	; 0x400
 8001f4e:	e7eb      	b.n	8001f28 <HAL_DMA_IRQHandler+0xe4>
 8001f50:	f44f 7200 	mov.w	r2, #512	; 0x200
 8001f54:	e7de      	b.n	8001f14 <HAL_DMA_IRQHandler+0xd0>
 8001f56:	f44f 4280 	mov.w	r2, #16384	; 0x4000
 8001f5a:	e7e5      	b.n	8001f28 <HAL_DMA_IRQHandler+0xe4>
 8001f5c:	f44f 3200 	mov.w	r2, #131072	; 0x20000
 8001f60:	e7d8      	b.n	8001f14 <HAL_DMA_IRQHandler+0xd0>
 8001f62:	bf00      	nop
 8001f64:	40020008 	.word	0x40020008
 8001f68:	40020000 	.word	0x40020000

08001f6c <HAL_GPIO_Init>:
 8001f6c:	e92d 4ff0 	stmdb	sp!, {r4, r5, r6, r7, r8, r9, sl, fp, lr}
 8001f70:	680e      	ldr	r6, [r1, #0]
 8001f72:	b083      	sub	sp, #12
 8001f74:	2e00      	cmp	r6, #0
 8001f76:	f000 80b5 	beq.w	80020e4 <HAL_GPIO_Init+0x178>
 8001f7a:	2200      	movs	r2, #0
 8001f7c:	4f7a      	ldr	r7, [pc, #488]	; (8002168 <HAL_GPIO_Init+0x1fc>)
 8001f7e:	4692      	mov	sl, r2
 8001f80:	4613      	mov	r3, r2
 8001f82:	4d7a      	ldr	r5, [pc, #488]	; (800216c <HAL_GPIO_Init+0x200>)
 8001f84:	f8df 81e8 	ldr.w	r8, [pc, #488]	; 8002170 <HAL_GPIO_Init+0x204>
 8001f88:	e006      	b.n	8001f98 <HAL_GPIO_Init+0x2c>
 8001f8a:	3301      	adds	r3, #1
 8001f8c:	fa36 f403 	lsrs.w	r4, r6, r3
 8001f90:	f102 0204 	add.w	r2, r2, #4
 8001f94:	f000 80a6 	beq.w	80020e4 <HAL_GPIO_Init+0x178>
 8001f98:	2401      	movs	r4, #1
 8001f9a:	409c      	lsls	r4, r3
 8001f9c:	ea34 0e06 	bics.w	lr, r4, r6
 8001fa0:	ea04 0c06 	and.w	ip, r4, r6
 8001fa4:	d1f1      	bne.n	8001f8a <HAL_GPIO_Init+0x1e>
 8001fa6:	684e      	ldr	r6, [r1, #4]
 8001fa8:	2e12      	cmp	r6, #18
 8001faa:	f200 809e 	bhi.w	80020ea <HAL_GPIO_Init+0x17e>
 8001fae:	2e12      	cmp	r6, #18
 8001fb0:	d81a      	bhi.n	8001fe8 <HAL_GPIO_Init+0x7c>
 8001fb2:	e8df f006 	tbb	[pc, r6]
 8001fb6:	b9a7      	.short	0xb9a7
 8001fb8:	1919ceb5 	.word	0x1919ceb5
 8001fbc:	19191919 	.word	0x19191919
 8001fc0:	19191919 	.word	0x19191919
 8001fc4:	b1191919 	.word	0xb1191919
 8001fc8:	bc          	.byte	0xbc
 8001fc9:	00          	.byte	0x00
 8001fca:	f8df e1a8 	ldr.w	lr, [pc, #424]	; 8002174 <HAL_GPIO_Init+0x208>
 8001fce:	4576      	cmp	r6, lr
 8001fd0:	f000 8098 	beq.w	8002104 <HAL_GPIO_Init+0x198>
 8001fd4:	f50e 2e70 	add.w	lr, lr, #983040	; 0xf0000
 8001fd8:	4576      	cmp	r6, lr
 8001fda:	f000 8093 	beq.w	8002104 <HAL_GPIO_Init+0x198>
 8001fde:	f5ae 1e80 	sub.w	lr, lr, #1048576	; 0x100000
 8001fe2:	4576      	cmp	r6, lr
 8001fe4:	f000 808e 	beq.w	8002104 <HAL_GPIO_Init+0x198>
 8001fe8:	f1bc 0fff 	cmp.w	ip, #255	; 0xff
 8001fec:	bf9c      	itt	ls
 8001fee:	4686      	movls	lr, r0
 8001ff0:	4693      	movls	fp, r2
 8001ff2:	f04f 060f 	mov.w	r6, #15
 8001ff6:	bf84      	itt	hi
 8001ff8:	f100 0e04 	addhi.w	lr, r0, #4
 8001ffc:	f1a2 0b20 	subhi.w	fp, r2, #32
 8002000:	f8de 4000 	ldr.w	r4, [lr]
 8002004:	fa0a f90b 	lsl.w	r9, sl, fp
 8002008:	fa06 fb0b 	lsl.w	fp, r6, fp
 800200c:	ea24 040b 	bic.w	r4, r4, fp
 8002010:	ea44 0409 	orr.w	r4, r4, r9
 8002014:	f8ce 4000 	str.w	r4, [lr]
 8002018:	684c      	ldr	r4, [r1, #4]
 800201a:	f014 5f80 	tst.w	r4, #268435456	; 0x10000000
 800201e:	d079      	beq.n	8002114 <HAL_GPIO_Init+0x1a8>
 8002020:	f8d7 e018 	ldr.w	lr, [r7, #24]
 8002024:	f003 0903 	and.w	r9, r3, #3
 8002028:	f04e 0e01 	orr.w	lr, lr, #1
 800202c:	f8c7 e018 	str.w	lr, [r7, #24]
 8002030:	f8d7 e018 	ldr.w	lr, [r7, #24]
 8002034:	ea4f 0989 	mov.w	r9, r9, lsl #2
 8002038:	f00e 0e01 	and.w	lr, lr, #1
 800203c:	f8cd e004 	str.w	lr, [sp, #4]
 8002040:	f8dd e004 	ldr.w	lr, [sp, #4]
 8002044:	f023 0e03 	bic.w	lr, r3, #3
 8002048:	f10e 4e80 	add.w	lr, lr, #1073741824	; 0x40000000
 800204c:	f50e 3e80 	add.w	lr, lr, #65536	; 0x10000
 8002050:	f8de b008 	ldr.w	fp, [lr, #8]
 8002054:	fa06 f609 	lsl.w	r6, r6, r9
 8002058:	ea2b 0606 	bic.w	r6, fp, r6
 800205c:	f8df b118 	ldr.w	fp, [pc, #280]	; 8002178 <HAL_GPIO_Init+0x20c>
 8002060:	4558      	cmp	r0, fp
 8002062:	d013      	beq.n	800208c <HAL_GPIO_Init+0x120>
 8002064:	f50b 6b80 	add.w	fp, fp, #1024	; 0x400
 8002068:	4558      	cmp	r0, fp
 800206a:	d06b      	beq.n	8002144 <HAL_GPIO_Init+0x1d8>
 800206c:	f8df b10c 	ldr.w	fp, [pc, #268]	; 800217c <HAL_GPIO_Init+0x210>
 8002070:	4558      	cmp	r0, fp
 8002072:	d060      	beq.n	8002136 <HAL_GPIO_Init+0x1ca>
 8002074:	f8df b108 	ldr.w	fp, [pc, #264]	; 8002180 <HAL_GPIO_Init+0x214>
 8002078:	4558      	cmp	r0, fp
 800207a:	bf0c      	ite	eq
 800207c:	f04f 0b03 	moveq.w	fp, #3
 8002080:	f04f 0b04 	movne.w	fp, #4
 8002084:	fa0b f909 	lsl.w	r9, fp, r9
 8002088:	ea46 0609 	orr.w	r6, r6, r9
 800208c:	f8ce 6008 	str.w	r6, [lr, #8]
 8002090:	682e      	ldr	r6, [r5, #0]
 8002092:	f414 3f80 	tst.w	r4, #65536	; 0x10000
 8002096:	bf14      	ite	ne
 8002098:	ea46 060c 	orrne.w	r6, r6, ip
 800209c:	ea26 060c 	biceq.w	r6, r6, ip
 80020a0:	602e      	str	r6, [r5, #0]
 80020a2:	686e      	ldr	r6, [r5, #4]
 80020a4:	f414 3f00 	tst.w	r4, #131072	; 0x20000
 80020a8:	bf14      	ite	ne
 80020aa:	ea46 060c 	orrne.w	r6, r6, ip
 80020ae:	ea26 060c 	biceq.w	r6, r6, ip
 80020b2:	606e      	str	r6, [r5, #4]
 80020b4:	68ae      	ldr	r6, [r5, #8]
 80020b6:	f414 1f80 	tst.w	r4, #1048576	; 0x100000
 80020ba:	bf14      	ite	ne
 80020bc:	ea46 060c 	orrne.w	r6, r6, ip
 80020c0:	ea26 060c 	biceq.w	r6, r6, ip
 80020c4:	60ae      	str	r6, [r5, #8]
 80020c6:	f414 1f00 	tst.w	r4, #2097152	; 0x200000
 80020ca:	68ec      	ldr	r4, [r5, #12]
 80020cc:	d01f      	beq.n	800210e <HAL_GPIO_Init+0x1a2>
 80020ce:	ea44 040c 	orr.w	r4, r4, ip
 80020d2:	60ec      	str	r4, [r5, #12]
 80020d4:	680e      	ldr	r6, [r1, #0]
 80020d6:	3301      	adds	r3, #1
 80020d8:	fa36 f403 	lsrs.w	r4, r6, r3
 80020dc:	f102 0204 	add.w	r2, r2, #4
 80020e0:	f47f af5a 	bne.w	8001f98 <HAL_GPIO_Init+0x2c>
 80020e4:	b003      	add	sp, #12
 80020e6:	e8bd 8ff0 	ldmia.w	sp!, {r4, r5, r6, r7, r8, r9, sl, fp, pc}
 80020ea:	4546      	cmp	r6, r8
 80020ec:	d00a      	beq.n	8002104 <HAL_GPIO_Init+0x198>
 80020ee:	f67f af6c 	bls.w	8001fca <HAL_GPIO_Init+0x5e>
 80020f2:	f8df e090 	ldr.w	lr, [pc, #144]	; 8002184 <HAL_GPIO_Init+0x218>
 80020f6:	4576      	cmp	r6, lr
 80020f8:	d004      	beq.n	8002104 <HAL_GPIO_Init+0x198>
 80020fa:	f50e 3e80 	add.w	lr, lr, #65536	; 0x10000
 80020fe:	4576      	cmp	r6, lr
 8002100:	f47f af72 	bne.w	8001fe8 <HAL_GPIO_Init+0x7c>
 8002104:	688e      	ldr	r6, [r1, #8]
 8002106:	bb3e      	cbnz	r6, 8002158 <HAL_GPIO_Init+0x1ec>
 8002108:	f04f 0a04 	mov.w	sl, #4
 800210c:	e76c      	b.n	8001fe8 <HAL_GPIO_Init+0x7c>
 800210e:	ea24 040c 	bic.w	r4, r4, ip
 8002112:	60ec      	str	r4, [r5, #12]
 8002114:	680e      	ldr	r6, [r1, #0]
 8002116:	e738      	b.n	8001f8a <HAL_GPIO_Init+0x1e>
 8002118:	68cc      	ldr	r4, [r1, #12]
 800211a:	f104 0a04 	add.w	sl, r4, #4
 800211e:	e763      	b.n	8001fe8 <HAL_GPIO_Init+0x7c>
 8002120:	68cc      	ldr	r4, [r1, #12]
 8002122:	f104 0a08 	add.w	sl, r4, #8
 8002126:	e75f      	b.n	8001fe8 <HAL_GPIO_Init+0x7c>
 8002128:	f8d1 a00c 	ldr.w	sl, [r1, #12]
 800212c:	e75c      	b.n	8001fe8 <HAL_GPIO_Init+0x7c>
 800212e:	68cc      	ldr	r4, [r1, #12]
 8002130:	f104 0a0c 	add.w	sl, r4, #12
 8002134:	e758      	b.n	8001fe8 <HAL_GPIO_Init+0x7c>
 8002136:	f04f 0b02 	mov.w	fp, #2
 800213a:	fa0b f909 	lsl.w	r9, fp, r9
 800213e:	ea46 0609 	orr.w	r6, r6, r9
 8002142:	e7a3      	b.n	800208c <HAL_GPIO_Init+0x120>
 8002144:	f04f 0b01 	mov.w	fp, #1
 8002148:	fa0b f909 	lsl.w	r9, fp, r9
 800214c:	ea46 0609 	orr.w	r6, r6, r9
 8002150:	e79c      	b.n	800208c <HAL_GPIO_Init+0x120>
 8002152:	f04f 0a00 	mov.w	sl, #0
 8002156:	e747      	b.n	8001fe8 <HAL_GPIO_Init+0x7c>
 8002158:	2e01      	cmp	r6, #1
 800215a:	f04f 0a08 	mov.w	sl, #8
 800215e:	bf0c      	ite	eq
 8002160:	6104      	streq	r4, [r0, #16]
 8002162:	6144      	strne	r4, [r0, #20]
 8002164:	e740      	b.n	8001fe8 <HAL_GPIO_Init+0x7c>
 8002166:	bf00      	nop
 8002168:	40021000 	.word	0x40021000
 800216c:	40010400 	.word	0x40010400
 8002170:	10220000 	.word	0x10220000
 8002174:	10120000 	.word	0x10120000
 8002178:	40010800 	.word	0x40010800
 800217c:	40011000 	.word	0x40011000
 8002180:	40011400 	.word	0x40011400
 8002184:	10310000 	.word	0x10310000

08002188 <HAL_GPIO_ReadPin>:
 8002188:	6883      	ldr	r3, [r0, #8]
 800218a:	4219      	tst	r1, r3
 800218c:	bf14      	ite	ne
 800218e:	2001      	movne	r0, #1
 8002190:	2000      	moveq	r0, #0
 8002192:	4770      	bx	lr

08002194 <HAL_GPIO_WritePin>:
 8002194:	b902      	cbnz	r2, 8002198 <HAL_GPIO_WritePin+0x4>
 8002196:	0409      	lsls	r1, r1, #16
 8002198:	6101      	str	r1, [r0, #16]
 800219a:	4770      	bx	lr

0800219c <HAL_RCC_OscConfig>:
 800219c:	2800      	cmp	r0, #0
 800219e:	f000 81b6 	beq.w	800250e <HAL_RCC_OscConfig+0x372>
 80021a2:	e92d 41f0 	stmdb	sp!, {r4, r5, r6, r7, r8, lr}
 80021a6:	6803      	ldr	r3, [r0, #0]
 80021a8:	4604      	mov	r4, r0
 80021aa:	07dd      	lsls	r5, r3, #31
 80021ac:	b082      	sub	sp, #8
 80021ae:	d535      	bpl.n	800221c <HAL_RCC_OscConfig+0x80>
 80021b0:	499a      	ldr	r1, [pc, #616]	; (800241c <HAL_RCC_OscConfig+0x280>)
 80021b2:	684a      	ldr	r2, [r1, #4]
 80021b4:	f002 020c 	and.w	r2, r2, #12
 80021b8:	2a04      	cmp	r2, #4
 80021ba:	f000 80ef 	beq.w	800239c <HAL_RCC_OscConfig+0x200>
 80021be:	684a      	ldr	r2, [r1, #4]
 80021c0:	f002 020c 	and.w	r2, r2, #12
 80021c4:	2a08      	cmp	r2, #8
 80021c6:	f000 80e5 	beq.w	8002394 <HAL_RCC_OscConfig+0x1f8>
 80021ca:	6863      	ldr	r3, [r4, #4]
 80021cc:	f5b3 3f80 	cmp.w	r3, #65536	; 0x10000
 80021d0:	d010      	beq.n	80021f4 <HAL_RCC_OscConfig+0x58>
 80021d2:	2b00      	cmp	r3, #0
 80021d4:	f000 810c 	beq.w	80023f0 <HAL_RCC_OscConfig+0x254>
 80021d8:	f5b3 2fa0 	cmp.w	r3, #327680	; 0x50000
 80021dc:	f000 8182 	beq.w	80024e4 <HAL_RCC_OscConfig+0x348>
 80021e0:	4b8e      	ldr	r3, [pc, #568]	; (800241c <HAL_RCC_OscConfig+0x280>)
 80021e2:	681a      	ldr	r2, [r3, #0]
 80021e4:	f422 3280 	bic.w	r2, r2, #65536	; 0x10000
 80021e8:	601a      	str	r2, [r3, #0]
 80021ea:	681a      	ldr	r2, [r3, #0]
 80021ec:	f422 2280 	bic.w	r2, r2, #262144	; 0x40000
 80021f0:	601a      	str	r2, [r3, #0]
 80021f2:	e004      	b.n	80021fe <HAL_RCC_OscConfig+0x62>
 80021f4:	4a89      	ldr	r2, [pc, #548]	; (800241c <HAL_RCC_OscConfig+0x280>)
 80021f6:	6813      	ldr	r3, [r2, #0]
 80021f8:	f443 3380 	orr.w	r3, r3, #65536	; 0x10000
 80021fc:	6013      	str	r3, [r2, #0]
 80021fe:	f7ff f9df 	bl	80015c0 <HAL_GetTick>
 8002202:	4e86      	ldr	r6, [pc, #536]	; (800241c <HAL_RCC_OscConfig+0x280>)
 8002204:	4605      	mov	r5, r0
 8002206:	e005      	b.n	8002214 <HAL_RCC_OscConfig+0x78>
 8002208:	f7ff f9da 	bl	80015c0 <HAL_GetTick>
 800220c:	1b40      	subs	r0, r0, r5
 800220e:	2864      	cmp	r0, #100	; 0x64
 8002210:	f200 80ea 	bhi.w	80023e8 <HAL_RCC_OscConfig+0x24c>
 8002214:	6833      	ldr	r3, [r6, #0]
 8002216:	039a      	lsls	r2, r3, #14
 8002218:	d5f6      	bpl.n	8002208 <HAL_RCC_OscConfig+0x6c>
 800221a:	6823      	ldr	r3, [r4, #0]
 800221c:	079f      	lsls	r7, r3, #30
 800221e:	d528      	bpl.n	8002272 <HAL_RCC_OscConfig+0xd6>
 8002220:	4a7e      	ldr	r2, [pc, #504]	; (800241c <HAL_RCC_OscConfig+0x280>)
 8002222:	6851      	ldr	r1, [r2, #4]
 8002224:	f011 0f0c 	tst.w	r1, #12
 8002228:	f000 808d 	beq.w	8002346 <HAL_RCC_OscConfig+0x1aa>
 800222c:	6851      	ldr	r1, [r2, #4]
 800222e:	f001 010c 	and.w	r1, r1, #12
 8002232:	2908      	cmp	r1, #8
 8002234:	f000 8083 	beq.w	800233e <HAL_RCC_OscConfig+0x1a2>
 8002238:	6923      	ldr	r3, [r4, #16]
 800223a:	2b00      	cmp	r3, #0
 800223c:	f000 8118 	beq.w	8002470 <HAL_RCC_OscConfig+0x2d4>
 8002240:	2201      	movs	r2, #1
 8002242:	4b77      	ldr	r3, [pc, #476]	; (8002420 <HAL_RCC_OscConfig+0x284>)
 8002244:	4e75      	ldr	r6, [pc, #468]	; (800241c <HAL_RCC_OscConfig+0x280>)
 8002246:	601a      	str	r2, [r3, #0]
 8002248:	f7ff f9ba 	bl	80015c0 <HAL_GetTick>
 800224c:	4605      	mov	r5, r0
 800224e:	e005      	b.n	800225c <HAL_RCC_OscConfig+0xc0>
 8002250:	f7ff f9b6 	bl	80015c0 <HAL_GetTick>
 8002254:	1b40      	subs	r0, r0, r5
 8002256:	2802      	cmp	r0, #2
 8002258:	f200 80c6 	bhi.w	80023e8 <HAL_RCC_OscConfig+0x24c>
 800225c:	6833      	ldr	r3, [r6, #0]
 800225e:	0798      	lsls	r0, r3, #30
 8002260:	d5f6      	bpl.n	8002250 <HAL_RCC_OscConfig+0xb4>
 8002262:	6833      	ldr	r3, [r6, #0]
 8002264:	6962      	ldr	r2, [r4, #20]
 8002266:	f023 03f8 	bic.w	r3, r3, #248	; 0xf8
 800226a:	ea43 03c2 	orr.w	r3, r3, r2, lsl #3
 800226e:	6033      	str	r3, [r6, #0]
 8002270:	6823      	ldr	r3, [r4, #0]
 8002272:	071a      	lsls	r2, r3, #28
 8002274:	d41f      	bmi.n	80022b6 <HAL_RCC_OscConfig+0x11a>
 8002276:	075d      	lsls	r5, r3, #29
 8002278:	d542      	bpl.n	8002300 <HAL_RCC_OscConfig+0x164>
 800227a:	4b68      	ldr	r3, [pc, #416]	; (800241c <HAL_RCC_OscConfig+0x280>)
 800227c:	69da      	ldr	r2, [r3, #28]
 800227e:	00d0      	lsls	r0, r2, #3
 8002280:	d57d      	bpl.n	800237e <HAL_RCC_OscConfig+0x1e2>
 8002282:	2500      	movs	r5, #0
 8002284:	4e67      	ldr	r6, [pc, #412]	; (8002424 <HAL_RCC_OscConfig+0x288>)
 8002286:	6833      	ldr	r3, [r6, #0]
 8002288:	05d9      	lsls	r1, r3, #23
 800228a:	f140 809d 	bpl.w	80023c8 <HAL_RCC_OscConfig+0x22c>
 800228e:	68e3      	ldr	r3, [r4, #12]
 8002290:	2b01      	cmp	r3, #1
 8002292:	f000 80fe 	beq.w	8002492 <HAL_RCC_OscConfig+0x2f6>
 8002296:	2b00      	cmp	r3, #0
 8002298:	f000 80ca 	beq.w	8002430 <HAL_RCC_OscConfig+0x294>
 800229c:	2b05      	cmp	r3, #5
 800229e:	4b5f      	ldr	r3, [pc, #380]	; (800241c <HAL_RCC_OscConfig+0x280>)
 80022a0:	6a1a      	ldr	r2, [r3, #32]
 80022a2:	f000 812c 	beq.w	80024fe <HAL_RCC_OscConfig+0x362>
 80022a6:	f022 0201 	bic.w	r2, r2, #1
 80022aa:	621a      	str	r2, [r3, #32]
 80022ac:	6a1a      	ldr	r2, [r3, #32]
 80022ae:	f022 0204 	bic.w	r2, r2, #4
 80022b2:	621a      	str	r2, [r3, #32]
 80022b4:	e0f2      	b.n	800249c <HAL_RCC_OscConfig+0x300>
 80022b6:	69a3      	ldr	r3, [r4, #24]
 80022b8:	2b00      	cmp	r3, #0
 80022ba:	d04f      	beq.n	800235c <HAL_RCC_OscConfig+0x1c0>
 80022bc:	2201      	movs	r2, #1
 80022be:	4b58      	ldr	r3, [pc, #352]	; (8002420 <HAL_RCC_OscConfig+0x284>)
 80022c0:	4e56      	ldr	r6, [pc, #344]	; (800241c <HAL_RCC_OscConfig+0x280>)
 80022c2:	f8c3 2480 	str.w	r2, [r3, #1152]	; 0x480
 80022c6:	f7ff f97b 	bl	80015c0 <HAL_GetTick>
 80022ca:	4605      	mov	r5, r0
 80022cc:	e005      	b.n	80022da <HAL_RCC_OscConfig+0x13e>
 80022ce:	f7ff f977 	bl	80015c0 <HAL_GetTick>
 80022d2:	1b40      	subs	r0, r0, r5
 80022d4:	2802      	cmp	r0, #2
 80022d6:	f200 8087 	bhi.w	80023e8 <HAL_RCC_OscConfig+0x24c>
 80022da:	6a73      	ldr	r3, [r6, #36]	; 0x24
 80022dc:	079b      	lsls	r3, r3, #30
 80022de:	d5f6      	bpl.n	80022ce <HAL_RCC_OscConfig+0x132>
 80022e0:	4b51      	ldr	r3, [pc, #324]	; (8002428 <HAL_RCC_OscConfig+0x28c>)
 80022e2:	4a52      	ldr	r2, [pc, #328]	; (800242c <HAL_RCC_OscConfig+0x290>)
 80022e4:	681b      	ldr	r3, [r3, #0]
 80022e6:	fba2 2303 	umull	r2, r3, r2, r3
 80022ea:	0a5b      	lsrs	r3, r3, #9
 80022ec:	9301      	str	r3, [sp, #4]
 80022ee:	bf00      	nop
 80022f0:	9b01      	ldr	r3, [sp, #4]
 80022f2:	1e5a      	subs	r2, r3, #1
 80022f4:	9201      	str	r2, [sp, #4]
 80022f6:	2b00      	cmp	r3, #0
 80022f8:	d1f9      	bne.n	80022ee <HAL_RCC_OscConfig+0x152>
 80022fa:	6823      	ldr	r3, [r4, #0]
 80022fc:	075d      	lsls	r5, r3, #29
 80022fe:	d4bc      	bmi.n	800227a <HAL_RCC_OscConfig+0xde>
 8002300:	69e0      	ldr	r0, [r4, #28]
 8002302:	b1c0      	cbz	r0, 8002336 <HAL_RCC_OscConfig+0x19a>
 8002304:	4d45      	ldr	r5, [pc, #276]	; (800241c <HAL_RCC_OscConfig+0x280>)
 8002306:	686b      	ldr	r3, [r5, #4]
 8002308:	f003 030c 	and.w	r3, r3, #12
 800230c:	2b08      	cmp	r3, #8
 800230e:	f000 80d8 	beq.w	80024c2 <HAL_RCC_OscConfig+0x326>
 8002312:	2200      	movs	r2, #0
 8002314:	4b42      	ldr	r3, [pc, #264]	; (8002420 <HAL_RCC_OscConfig+0x284>)
 8002316:	2802      	cmp	r0, #2
 8002318:	661a      	str	r2, [r3, #96]	; 0x60
 800231a:	f000 80fa 	beq.w	8002512 <HAL_RCC_OscConfig+0x376>
 800231e:	f7ff f94f 	bl	80015c0 <HAL_GetTick>
 8002322:	4604      	mov	r4, r0
 8002324:	e004      	b.n	8002330 <HAL_RCC_OscConfig+0x194>
 8002326:	f7ff f94b 	bl	80015c0 <HAL_GetTick>
 800232a:	1b00      	subs	r0, r0, r4
 800232c:	2802      	cmp	r0, #2
 800232e:	d85b      	bhi.n	80023e8 <HAL_RCC_OscConfig+0x24c>
 8002330:	682b      	ldr	r3, [r5, #0]
 8002332:	019b      	lsls	r3, r3, #6
 8002334:	d4f7      	bmi.n	8002326 <HAL_RCC_OscConfig+0x18a>
 8002336:	2000      	movs	r0, #0
 8002338:	b002      	add	sp, #8
 800233a:	e8bd 81f0 	ldmia.w	sp!, {r4, r5, r6, r7, r8, pc}
 800233e:	6852      	ldr	r2, [r2, #4]
 8002340:	03d6      	lsls	r6, r2, #15
 8002342:	f53f af79 	bmi.w	8002238 <HAL_RCC_OscConfig+0x9c>
 8002346:	4a35      	ldr	r2, [pc, #212]	; (800241c <HAL_RCC_OscConfig+0x280>)
 8002348:	6812      	ldr	r2, [r2, #0]
 800234a:	0795      	lsls	r5, r2, #30
 800234c:	d530      	bpl.n	80023b0 <HAL_RCC_OscConfig+0x214>
 800234e:	6922      	ldr	r2, [r4, #16]
 8002350:	2a01      	cmp	r2, #1
 8002352:	d02d      	beq.n	80023b0 <HAL_RCC_OscConfig+0x214>
 8002354:	2001      	movs	r0, #1
 8002356:	b002      	add	sp, #8
 8002358:	e8bd 81f0 	ldmia.w	sp!, {r4, r5, r6, r7, r8, pc}
 800235c:	4a30      	ldr	r2, [pc, #192]	; (8002420 <HAL_RCC_OscConfig+0x284>)
 800235e:	4e2f      	ldr	r6, [pc, #188]	; (800241c <HAL_RCC_OscConfig+0x280>)
 8002360:	f8c2 3480 	str.w	r3, [r2, #1152]	; 0x480
 8002364:	f7ff f92c 	bl	80015c0 <HAL_GetTick>
 8002368:	4605      	mov	r5, r0
 800236a:	e004      	b.n	8002376 <HAL_RCC_OscConfig+0x1da>
 800236c:	f7ff f928 	bl	80015c0 <HAL_GetTick>
 8002370:	1b40      	subs	r0, r0, r5
 8002372:	2802      	cmp	r0, #2
 8002374:	d838      	bhi.n	80023e8 <HAL_RCC_OscConfig+0x24c>
 8002376:	6a73      	ldr	r3, [r6, #36]	; 0x24
 8002378:	079f      	lsls	r7, r3, #30
 800237a:	d4f7      	bmi.n	800236c <HAL_RCC_OscConfig+0x1d0>
 800237c:	e7bd      	b.n	80022fa <HAL_RCC_OscConfig+0x15e>
 800237e:	69da      	ldr	r2, [r3, #28]
 8002380:	2501      	movs	r5, #1
 8002382:	f042 5280 	orr.w	r2, r2, #268435456	; 0x10000000
 8002386:	61da      	str	r2, [r3, #28]
 8002388:	69db      	ldr	r3, [r3, #28]
 800238a:	f003 5380 	and.w	r3, r3, #268435456	; 0x10000000
 800238e:	9300      	str	r3, [sp, #0]
 8002390:	9b00      	ldr	r3, [sp, #0]
 8002392:	e777      	b.n	8002284 <HAL_RCC_OscConfig+0xe8>
 8002394:	684a      	ldr	r2, [r1, #4]
 8002396:	03d0      	lsls	r0, r2, #15
 8002398:	f57f af17 	bpl.w	80021ca <HAL_RCC_OscConfig+0x2e>
 800239c:	4a1f      	ldr	r2, [pc, #124]	; (800241c <HAL_RCC_OscConfig+0x280>)
 800239e:	6812      	ldr	r2, [r2, #0]
 80023a0:	0391      	lsls	r1, r2, #14
 80023a2:	f57f af3b 	bpl.w	800221c <HAL_RCC_OscConfig+0x80>
 80023a6:	6862      	ldr	r2, [r4, #4]
 80023a8:	2a00      	cmp	r2, #0
 80023aa:	f47f af37 	bne.w	800221c <HAL_RCC_OscConfig+0x80>
 80023ae:	e7d1      	b.n	8002354 <HAL_RCC_OscConfig+0x1b8>
 80023b0:	491a      	ldr	r1, [pc, #104]	; (800241c <HAL_RCC_OscConfig+0x280>)
 80023b2:	6960      	ldr	r0, [r4, #20]
 80023b4:	680a      	ldr	r2, [r1, #0]
 80023b6:	f022 02f8 	bic.w	r2, r2, #248	; 0xf8
 80023ba:	ea42 02c0 	orr.w	r2, r2, r0, lsl #3
 80023be:	600a      	str	r2, [r1, #0]
 80023c0:	071a      	lsls	r2, r3, #28
 80023c2:	f57f af58 	bpl.w	8002276 <HAL_RCC_OscConfig+0xda>
 80023c6:	e776      	b.n	80022b6 <HAL_RCC_OscConfig+0x11a>
 80023c8:	6833      	ldr	r3, [r6, #0]
 80023ca:	f443 7380 	orr.w	r3, r3, #256	; 0x100
 80023ce:	6033      	str	r3, [r6, #0]
 80023d0:	f7ff f8f6 	bl	80015c0 <HAL_GetTick>
 80023d4:	4607      	mov	r7, r0
 80023d6:	6833      	ldr	r3, [r6, #0]
 80023d8:	05da      	lsls	r2, r3, #23
 80023da:	f53f af58 	bmi.w	800228e <HAL_RCC_OscConfig+0xf2>
 80023de:	f7ff f8ef 	bl	80015c0 <HAL_GetTick>
 80023e2:	1bc0      	subs	r0, r0, r7
 80023e4:	2864      	cmp	r0, #100	; 0x64
 80023e6:	d9f6      	bls.n	80023d6 <HAL_RCC_OscConfig+0x23a>
 80023e8:	2003      	movs	r0, #3
 80023ea:	b002      	add	sp, #8
 80023ec:	e8bd 81f0 	ldmia.w	sp!, {r4, r5, r6, r7, r8, pc}
 80023f0:	4d0a      	ldr	r5, [pc, #40]	; (800241c <HAL_RCC_OscConfig+0x280>)
 80023f2:	682b      	ldr	r3, [r5, #0]
 80023f4:	f423 3380 	bic.w	r3, r3, #65536	; 0x10000
 80023f8:	602b      	str	r3, [r5, #0]
 80023fa:	682b      	ldr	r3, [r5, #0]
 80023fc:	f423 2380 	bic.w	r3, r3, #262144	; 0x40000
 8002400:	602b      	str	r3, [r5, #0]
 8002402:	f7ff f8dd 	bl	80015c0 <HAL_GetTick>
 8002406:	4606      	mov	r6, r0
 8002408:	e004      	b.n	8002414 <HAL_RCC_OscConfig+0x278>
 800240a:	f7ff f8d9 	bl	80015c0 <HAL_GetTick>
 800240e:	1b80      	subs	r0, r0, r6
 8002410:	2864      	cmp	r0, #100	; 0x64
 8002412:	d8e9      	bhi.n	80023e8 <HAL_RCC_OscConfig+0x24c>
 8002414:	682b      	ldr	r3, [r5, #0]
 8002416:	039b      	lsls	r3, r3, #14
 8002418:	d4f7      	bmi.n	800240a <HAL_RCC_OscConfig+0x26e>
 800241a:	e6fe      	b.n	800221a <HAL_RCC_OscConfig+0x7e>
 800241c:	40021000 	.word	0x40021000
 8002420:	42420000 	.word	0x42420000
 8002424:	40007000 	.word	0x40007000
 8002428:	200001c8 	.word	0x200001c8
 800242c:	10624dd3 	.word	0x10624dd3
 8002430:	4e50      	ldr	r6, [pc, #320]	; (8002574 <HAL_RCC_OscConfig+0x3d8>)
 8002432:	f241 3888 	movw	r8, #5000	; 0x1388
 8002436:	6a33      	ldr	r3, [r6, #32]
 8002438:	f023 0301 	bic.w	r3, r3, #1
 800243c:	6233      	str	r3, [r6, #32]
 800243e:	6a33      	ldr	r3, [r6, #32]
 8002440:	f023 0304 	bic.w	r3, r3, #4
 8002444:	6233      	str	r3, [r6, #32]
 8002446:	f7ff f8bb 	bl	80015c0 <HAL_GetTick>
 800244a:	4607      	mov	r7, r0
 800244c:	e004      	b.n	8002458 <HAL_RCC_OscConfig+0x2bc>
 800244e:	f7ff f8b7 	bl	80015c0 <HAL_GetTick>
 8002452:	1bc0      	subs	r0, r0, r7
 8002454:	4540      	cmp	r0, r8
 8002456:	d8c7      	bhi.n	80023e8 <HAL_RCC_OscConfig+0x24c>
 8002458:	6a33      	ldr	r3, [r6, #32]
 800245a:	0798      	lsls	r0, r3, #30
 800245c:	d4f7      	bmi.n	800244e <HAL_RCC_OscConfig+0x2b2>
 800245e:	2d00      	cmp	r5, #0
 8002460:	f43f af4e 	beq.w	8002300 <HAL_RCC_OscConfig+0x164>
 8002464:	4a43      	ldr	r2, [pc, #268]	; (8002574 <HAL_RCC_OscConfig+0x3d8>)
 8002466:	69d3      	ldr	r3, [r2, #28]
 8002468:	f023 5380 	bic.w	r3, r3, #268435456	; 0x10000000
 800246c:	61d3      	str	r3, [r2, #28]
 800246e:	e747      	b.n	8002300 <HAL_RCC_OscConfig+0x164>
 8002470:	4a41      	ldr	r2, [pc, #260]	; (8002578 <HAL_RCC_OscConfig+0x3dc>)
 8002472:	4e40      	ldr	r6, [pc, #256]	; (8002574 <HAL_RCC_OscConfig+0x3d8>)
 8002474:	6013      	str	r3, [r2, #0]
 8002476:	f7ff f8a3 	bl	80015c0 <HAL_GetTick>
 800247a:	4605      	mov	r5, r0
 800247c:	e004      	b.n	8002488 <HAL_RCC_OscConfig+0x2ec>
 800247e:	f7ff f89f 	bl	80015c0 <HAL_GetTick>
 8002482:	1b40      	subs	r0, r0, r5
 8002484:	2802      	cmp	r0, #2
 8002486:	d8af      	bhi.n	80023e8 <HAL_RCC_OscConfig+0x24c>
 8002488:	6833      	ldr	r3, [r6, #0]
 800248a:	0799      	lsls	r1, r3, #30
 800248c:	d4f7      	bmi.n	800247e <HAL_RCC_OscConfig+0x2e2>
 800248e:	6823      	ldr	r3, [r4, #0]
 8002490:	e6ef      	b.n	8002272 <HAL_RCC_OscConfig+0xd6>
 8002492:	4a38      	ldr	r2, [pc, #224]	; (8002574 <HAL_RCC_OscConfig+0x3d8>)
 8002494:	6a13      	ldr	r3, [r2, #32]
 8002496:	f043 0301 	orr.w	r3, r3, #1
 800249a:	6213      	str	r3, [r2, #32]
 800249c:	f7ff f890 	bl	80015c0 <HAL_GetTick>
 80024a0:	f241 3888 	movw	r8, #5000	; 0x1388
 80024a4:	4606      	mov	r6, r0
 80024a6:	4f33      	ldr	r7, [pc, #204]	; (8002574 <HAL_RCC_OscConfig+0x3d8>)
 80024a8:	e004      	b.n	80024b4 <HAL_RCC_OscConfig+0x318>
 80024aa:	f7ff f889 	bl	80015c0 <HAL_GetTick>
 80024ae:	1b80      	subs	r0, r0, r6
 80024b0:	4540      	cmp	r0, r8
 80024b2:	d899      	bhi.n	80023e8 <HAL_RCC_OscConfig+0x24c>
 80024b4:	6a3b      	ldr	r3, [r7, #32]
 80024b6:	079b      	lsls	r3, r3, #30
 80024b8:	d5f7      	bpl.n	80024aa <HAL_RCC_OscConfig+0x30e>
 80024ba:	2d00      	cmp	r5, #0
 80024bc:	f43f af20 	beq.w	8002300 <HAL_RCC_OscConfig+0x164>
 80024c0:	e7d0      	b.n	8002464 <HAL_RCC_OscConfig+0x2c8>
 80024c2:	2801      	cmp	r0, #1
 80024c4:	f43f af38 	beq.w	8002338 <HAL_RCC_OscConfig+0x19c>
 80024c8:	686b      	ldr	r3, [r5, #4]
 80024ca:	6a22      	ldr	r2, [r4, #32]
 80024cc:	f403 3180 	and.w	r1, r3, #65536	; 0x10000
 80024d0:	4291      	cmp	r1, r2
 80024d2:	f47f af3f 	bne.w	8002354 <HAL_RCC_OscConfig+0x1b8>
 80024d6:	6a60      	ldr	r0, [r4, #36]	; 0x24
 80024d8:	f403 1370 	and.w	r3, r3, #3932160	; 0x3c0000
 80024dc:	1a18      	subs	r0, r3, r0
 80024de:	bf18      	it	ne
 80024e0:	2001      	movne	r0, #1
 80024e2:	e729      	b.n	8002338 <HAL_RCC_OscConfig+0x19c>
 80024e4:	f103 4380 	add.w	r3, r3, #1073741824	; 0x40000000
 80024e8:	f5a3 333c 	sub.w	r3, r3, #192512	; 0x2f000
 80024ec:	681a      	ldr	r2, [r3, #0]
 80024ee:	f442 2280 	orr.w	r2, r2, #262144	; 0x40000
 80024f2:	601a      	str	r2, [r3, #0]
 80024f4:	681a      	ldr	r2, [r3, #0]
 80024f6:	f442 3280 	orr.w	r2, r2, #65536	; 0x10000
 80024fa:	601a      	str	r2, [r3, #0]
 80024fc:	e67f      	b.n	80021fe <HAL_RCC_OscConfig+0x62>
 80024fe:	f042 0204 	orr.w	r2, r2, #4
 8002502:	621a      	str	r2, [r3, #32]
 8002504:	6a1a      	ldr	r2, [r3, #32]
 8002506:	f042 0201 	orr.w	r2, r2, #1
 800250a:	621a      	str	r2, [r3, #32]
 800250c:	e7c6      	b.n	800249c <HAL_RCC_OscConfig+0x300>
 800250e:	2001      	movs	r0, #1
 8002510:	4770      	bx	lr
 8002512:	f7ff f855 	bl	80015c0 <HAL_GetTick>
 8002516:	4606      	mov	r6, r0
 8002518:	e005      	b.n	8002526 <HAL_RCC_OscConfig+0x38a>
 800251a:	f7ff f851 	bl	80015c0 <HAL_GetTick>
 800251e:	1b80      	subs	r0, r0, r6
 8002520:	2802      	cmp	r0, #2
 8002522:	f63f af61 	bhi.w	80023e8 <HAL_RCC_OscConfig+0x24c>
 8002526:	682b      	ldr	r3, [r5, #0]
 8002528:	0199      	lsls	r1, r3, #6
 800252a:	d4f6      	bmi.n	800251a <HAL_RCC_OscConfig+0x37e>
 800252c:	6a23      	ldr	r3, [r4, #32]
 800252e:	f5b3 3f80 	cmp.w	r3, #65536	; 0x10000
 8002532:	d105      	bne.n	8002540 <HAL_RCC_OscConfig+0x3a4>
 8002534:	686a      	ldr	r2, [r5, #4]
 8002536:	68a1      	ldr	r1, [r4, #8]
 8002538:	f422 3200 	bic.w	r2, r2, #131072	; 0x20000
 800253c:	430a      	orrs	r2, r1
 800253e:	606a      	str	r2, [r5, #4]
 8002540:	2001      	movs	r0, #1
 8002542:	4d0c      	ldr	r5, [pc, #48]	; (8002574 <HAL_RCC_OscConfig+0x3d8>)
 8002544:	6a61      	ldr	r1, [r4, #36]	; 0x24
 8002546:	686a      	ldr	r2, [r5, #4]
 8002548:	430b      	orrs	r3, r1
 800254a:	f422 1274 	bic.w	r2, r2, #3997696	; 0x3d0000
 800254e:	490a      	ldr	r1, [pc, #40]	; (8002578 <HAL_RCC_OscConfig+0x3dc>)
 8002550:	4313      	orrs	r3, r2
 8002552:	606b      	str	r3, [r5, #4]
 8002554:	6608      	str	r0, [r1, #96]	; 0x60
 8002556:	f7ff f833 	bl	80015c0 <HAL_GetTick>
 800255a:	4604      	mov	r4, r0
 800255c:	e005      	b.n	800256a <HAL_RCC_OscConfig+0x3ce>
 800255e:	f7ff f82f 	bl	80015c0 <HAL_GetTick>
 8002562:	1b00      	subs	r0, r0, r4
 8002564:	2802      	cmp	r0, #2
 8002566:	f63f af3f 	bhi.w	80023e8 <HAL_RCC_OscConfig+0x24c>
 800256a:	682b      	ldr	r3, [r5, #0]
 800256c:	019a      	lsls	r2, r3, #6
 800256e:	d5f6      	bpl.n	800255e <HAL_RCC_OscConfig+0x3c2>
 8002570:	e6e1      	b.n	8002336 <HAL_RCC_OscConfig+0x19a>
 8002572:	bf00      	nop
 8002574:	40021000 	.word	0x40021000
 8002578:	42420000 	.word	0x42420000

0800257c <HAL_RCC_ClockConfig>:
 800257c:	2800      	cmp	r0, #0
 800257e:	f000 80b1 	beq.w	80026e4 <HAL_RCC_ClockConfig+0x168>
 8002582:	4a5e      	ldr	r2, [pc, #376]	; (80026fc <HAL_RCC_ClockConfig+0x180>)
 8002584:	e92d 41f0 	stmdb	sp!, {r4, r5, r6, r7, r8, lr}
 8002588:	6813      	ldr	r3, [r2, #0]
 800258a:	4604      	mov	r4, r0
 800258c:	f003 0307 	and.w	r3, r3, #7
 8002590:	428b      	cmp	r3, r1
 8002592:	460d      	mov	r5, r1
 8002594:	b086      	sub	sp, #24
 8002596:	d20d      	bcs.n	80025b4 <HAL_RCC_ClockConfig+0x38>
 8002598:	6813      	ldr	r3, [r2, #0]
 800259a:	f023 0307 	bic.w	r3, r3, #7
 800259e:	430b      	orrs	r3, r1
 80025a0:	6013      	str	r3, [r2, #0]
 80025a2:	6813      	ldr	r3, [r2, #0]
 80025a4:	f003 0307 	and.w	r3, r3, #7
 80025a8:	428b      	cmp	r3, r1
 80025aa:	d003      	beq.n	80025b4 <HAL_RCC_ClockConfig+0x38>
 80025ac:	2001      	movs	r0, #1
 80025ae:	b006      	add	sp, #24
 80025b0:	e8bd 81f0 	ldmia.w	sp!, {r4, r5, r6, r7, r8, pc}
 80025b4:	6823      	ldr	r3, [r4, #0]
 80025b6:	079e      	lsls	r6, r3, #30
 80025b8:	d514      	bpl.n	80025e4 <HAL_RCC_ClockConfig+0x68>
 80025ba:	0758      	lsls	r0, r3, #29
 80025bc:	d504      	bpl.n	80025c8 <HAL_RCC_ClockConfig+0x4c>
 80025be:	4950      	ldr	r1, [pc, #320]	; (8002700 <HAL_RCC_ClockConfig+0x184>)
 80025c0:	684a      	ldr	r2, [r1, #4]
 80025c2:	f442 62e0 	orr.w	r2, r2, #1792	; 0x700
 80025c6:	604a      	str	r2, [r1, #4]
 80025c8:	0719      	lsls	r1, r3, #28
 80025ca:	d504      	bpl.n	80025d6 <HAL_RCC_ClockConfig+0x5a>
 80025cc:	494c      	ldr	r1, [pc, #304]	; (8002700 <HAL_RCC_ClockConfig+0x184>)
 80025ce:	684a      	ldr	r2, [r1, #4]
 80025d0:	f442 5260 	orr.w	r2, r2, #14336	; 0x3800
 80025d4:	604a      	str	r2, [r1, #4]
 80025d6:	494a      	ldr	r1, [pc, #296]	; (8002700 <HAL_RCC_ClockConfig+0x184>)
 80025d8:	68a0      	ldr	r0, [r4, #8]
 80025da:	684a      	ldr	r2, [r1, #4]
 80025dc:	f022 02f0 	bic.w	r2, r2, #240	; 0xf0
 80025e0:	4302      	orrs	r2, r0
 80025e2:	604a      	str	r2, [r1, #4]
 80025e4:	07da      	lsls	r2, r3, #31
 80025e6:	d520      	bpl.n	800262a <HAL_RCC_ClockConfig+0xae>
 80025e8:	6862      	ldr	r2, [r4, #4]
 80025ea:	4b45      	ldr	r3, [pc, #276]	; (8002700 <HAL_RCC_ClockConfig+0x184>)
 80025ec:	2a01      	cmp	r2, #1
 80025ee:	681b      	ldr	r3, [r3, #0]
 80025f0:	d07a      	beq.n	80026e8 <HAL_RCC_ClockConfig+0x16c>
 80025f2:	2a02      	cmp	r2, #2
 80025f4:	d073      	beq.n	80026de <HAL_RCC_ClockConfig+0x162>
 80025f6:	079e      	lsls	r6, r3, #30
 80025f8:	d5d8      	bpl.n	80025ac <HAL_RCC_ClockConfig+0x30>
 80025fa:	4e41      	ldr	r6, [pc, #260]	; (8002700 <HAL_RCC_ClockConfig+0x184>)
 80025fc:	f241 3888 	movw	r8, #5000	; 0x1388
 8002600:	6873      	ldr	r3, [r6, #4]
 8002602:	f023 0303 	bic.w	r3, r3, #3
 8002606:	4313      	orrs	r3, r2
 8002608:	6073      	str	r3, [r6, #4]
 800260a:	f7fe ffd9 	bl	80015c0 <HAL_GetTick>
 800260e:	4607      	mov	r7, r0
 8002610:	e004      	b.n	800261c <HAL_RCC_ClockConfig+0xa0>
 8002612:	f7fe ffd5 	bl	80015c0 <HAL_GetTick>
 8002616:	1bc0      	subs	r0, r0, r7
 8002618:	4540      	cmp	r0, r8
 800261a:	d868      	bhi.n	80026ee <HAL_RCC_ClockConfig+0x172>
 800261c:	6873      	ldr	r3, [r6, #4]
 800261e:	6862      	ldr	r2, [r4, #4]
 8002620:	f003 030c 	and.w	r3, r3, #12
 8002624:	ebb3 0f82 	cmp.w	r3, r2, lsl #2
 8002628:	d1f3      	bne.n	8002612 <HAL_RCC_ClockConfig+0x96>
 800262a:	4a34      	ldr	r2, [pc, #208]	; (80026fc <HAL_RCC_ClockConfig+0x180>)
 800262c:	6813      	ldr	r3, [r2, #0]
 800262e:	f003 0307 	and.w	r3, r3, #7
 8002632:	42ab      	cmp	r3, r5
 8002634:	d909      	bls.n	800264a <HAL_RCC_ClockConfig+0xce>
 8002636:	6813      	ldr	r3, [r2, #0]
 8002638:	f023 0307 	bic.w	r3, r3, #7
 800263c:	432b      	orrs	r3, r5
 800263e:	6013      	str	r3, [r2, #0]
 8002640:	6813      	ldr	r3, [r2, #0]
 8002642:	f003 0307 	and.w	r3, r3, #7
 8002646:	42ab      	cmp	r3, r5
 8002648:	d1b0      	bne.n	80025ac <HAL_RCC_ClockConfig+0x30>
 800264a:	6823      	ldr	r3, [r4, #0]
 800264c:	0758      	lsls	r0, r3, #29
 800264e:	d506      	bpl.n	800265e <HAL_RCC_ClockConfig+0xe2>
 8002650:	492b      	ldr	r1, [pc, #172]	; (8002700 <HAL_RCC_ClockConfig+0x184>)
 8002652:	68e0      	ldr	r0, [r4, #12]
 8002654:	684a      	ldr	r2, [r1, #4]
 8002656:	f422 62e0 	bic.w	r2, r2, #1792	; 0x700
 800265a:	4302      	orrs	r2, r0
 800265c:	604a      	str	r2, [r1, #4]
 800265e:	0719      	lsls	r1, r3, #28
 8002660:	d507      	bpl.n	8002672 <HAL_RCC_ClockConfig+0xf6>
 8002662:	4a27      	ldr	r2, [pc, #156]	; (8002700 <HAL_RCC_ClockConfig+0x184>)
 8002664:	6921      	ldr	r1, [r4, #16]
 8002666:	6853      	ldr	r3, [r2, #4]
 8002668:	f423 5360 	bic.w	r3, r3, #14336	; 0x3800
 800266c:	ea43 03c1 	orr.w	r3, r3, r1, lsl #3
 8002670:	6053      	str	r3, [r2, #4]
 8002672:	f240 2401 	movw	r4, #513	; 0x201
 8002676:	4b23      	ldr	r3, [pc, #140]	; (8002704 <HAL_RCC_ClockConfig+0x188>)
 8002678:	ad06      	add	r5, sp, #24
 800267a:	cb0f      	ldmia	r3, {r0, r1, r2, r3}
 800267c:	e905 000f 	stmdb	r5, {r0, r1, r2, r3}
 8002680:	491f      	ldr	r1, [pc, #124]	; (8002700 <HAL_RCC_ClockConfig+0x184>)
 8002682:	f8ad 4004 	strh.w	r4, [sp, #4]
 8002686:	684a      	ldr	r2, [r1, #4]
 8002688:	f002 030c 	and.w	r3, r2, #12
 800268c:	2b08      	cmp	r3, #8
 800268e:	d011      	beq.n	80026b4 <HAL_RCC_ClockConfig+0x138>
 8002690:	4b1d      	ldr	r3, [pc, #116]	; (8002708 <HAL_RCC_ClockConfig+0x18c>)
 8002692:	4a1b      	ldr	r2, [pc, #108]	; (8002700 <HAL_RCC_ClockConfig+0x184>)
 8002694:	481d      	ldr	r0, [pc, #116]	; (800270c <HAL_RCC_ClockConfig+0x190>)
 8002696:	6852      	ldr	r2, [r2, #4]
 8002698:	491d      	ldr	r1, [pc, #116]	; (8002710 <HAL_RCC_ClockConfig+0x194>)
 800269a:	f3c2 1203 	ubfx	r2, r2, #4, #4
 800269e:	5c80      	ldrb	r0, [r0, r2]
 80026a0:	4a1c      	ldr	r2, [pc, #112]	; (8002714 <HAL_RCC_ClockConfig+0x198>)
 80026a2:	40c3      	lsrs	r3, r0
 80026a4:	6808      	ldr	r0, [r1, #0]
 80026a6:	6013      	str	r3, [r2, #0]
 80026a8:	f7fe fee6 	bl	8001478 <HAL_InitTick>
 80026ac:	2000      	movs	r0, #0
 80026ae:	b006      	add	sp, #24
 80026b0:	e8bd 81f0 	ldmia.w	sp!, {r4, r5, r6, r7, r8, pc}
 80026b4:	f3c2 4383 	ubfx	r3, r2, #18, #4
 80026b8:	3318      	adds	r3, #24
 80026ba:	446b      	add	r3, sp
 80026bc:	03d2      	lsls	r2, r2, #15
 80026be:	f813 3c10 	ldrb.w	r3, [r3, #-16]
 80026c2:	d516      	bpl.n	80026f2 <HAL_RCC_ClockConfig+0x176>
 80026c4:	684a      	ldr	r2, [r1, #4]
 80026c6:	4910      	ldr	r1, [pc, #64]	; (8002708 <HAL_RCC_ClockConfig+0x18c>)
 80026c8:	f3c2 4240 	ubfx	r2, r2, #17, #1
 80026cc:	fb01 f303 	mul.w	r3, r1, r3
 80026d0:	3218      	adds	r2, #24
 80026d2:	446a      	add	r2, sp
 80026d4:	f812 2c14 	ldrb.w	r2, [r2, #-20]
 80026d8:	fbb3 f3f2 	udiv	r3, r3, r2
 80026dc:	e7d9      	b.n	8002692 <HAL_RCC_ClockConfig+0x116>
 80026de:	019f      	lsls	r7, r3, #6
 80026e0:	d48b      	bmi.n	80025fa <HAL_RCC_ClockConfig+0x7e>
 80026e2:	e763      	b.n	80025ac <HAL_RCC_ClockConfig+0x30>
 80026e4:	2001      	movs	r0, #1
 80026e6:	4770      	bx	lr
 80026e8:	039b      	lsls	r3, r3, #14
 80026ea:	d486      	bmi.n	80025fa <HAL_RCC_ClockConfig+0x7e>
 80026ec:	e75e      	b.n	80025ac <HAL_RCC_ClockConfig+0x30>
 80026ee:	2003      	movs	r0, #3
 80026f0:	e75d      	b.n	80025ae <HAL_RCC_ClockConfig+0x32>
 80026f2:	4a09      	ldr	r2, [pc, #36]	; (8002718 <HAL_RCC_ClockConfig+0x19c>)
 80026f4:	fb02 f303 	mul.w	r3, r2, r3
 80026f8:	e7cb      	b.n	8002692 <HAL_RCC_ClockConfig+0x116>
 80026fa:	bf00      	nop
 80026fc:	40022000 	.word	0x40022000
 8002700:	40021000 	.word	0x40021000
 8002704:	08004010 	.word	0x08004010
 8002708:	007a1200 	.word	0x007a1200
 800270c:	08003ff8 	.word	0x08003ff8
 8002710:	200001d0 	.word	0x200001d0
 8002714:	200001c8 	.word	0x200001c8
 8002718:	003d0900 	.word	0x003d0900

0800271c <HAL_RCC_GetPCLK1Freq>:
 800271c:	4b04      	ldr	r3, [pc, #16]	; (8002730 <HAL_RCC_GetPCLK1Freq+0x14>)
 800271e:	4a05      	ldr	r2, [pc, #20]	; (8002734 <HAL_RCC_GetPCLK1Freq+0x18>)
 8002720:	685b      	ldr	r3, [r3, #4]
 8002722:	4905      	ldr	r1, [pc, #20]	; (8002738 <HAL_RCC_GetPCLK1Freq+0x1c>)
 8002724:	f3c3 2302 	ubfx	r3, r3, #8, #3
 8002728:	5ccb      	ldrb	r3, [r1, r3]
 800272a:	6810      	ldr	r0, [r2, #0]
 800272c:	40d8      	lsrs	r0, r3
 800272e:	4770      	bx	lr
 8002730:	40021000 	.word	0x40021000
 8002734:	200001c8 	.word	0x200001c8
 8002738:	08004008 	.word	0x08004008

0800273c <HAL_RCC_GetClockConfig>:
 800273c:	220f      	movs	r2, #15
 800273e:	4b0d      	ldr	r3, [pc, #52]	; (8002774 <HAL_RCC_GetClockConfig+0x38>)
 8002740:	6002      	str	r2, [r0, #0]
 8002742:	685a      	ldr	r2, [r3, #4]
 8002744:	b410      	push	{r4}
 8002746:	f002 0203 	and.w	r2, r2, #3
 800274a:	6042      	str	r2, [r0, #4]
 800274c:	685a      	ldr	r2, [r3, #4]
 800274e:	4c0a      	ldr	r4, [pc, #40]	; (8002778 <HAL_RCC_GetClockConfig+0x3c>)
 8002750:	f002 02f0 	and.w	r2, r2, #240	; 0xf0
 8002754:	6082      	str	r2, [r0, #8]
 8002756:	685a      	ldr	r2, [r3, #4]
 8002758:	f402 62e0 	and.w	r2, r2, #1792	; 0x700
 800275c:	60c2      	str	r2, [r0, #12]
 800275e:	685b      	ldr	r3, [r3, #4]
 8002760:	08db      	lsrs	r3, r3, #3
 8002762:	f403 63e0 	and.w	r3, r3, #1792	; 0x700
 8002766:	6103      	str	r3, [r0, #16]
 8002768:	6823      	ldr	r3, [r4, #0]
 800276a:	bc10      	pop	{r4}
 800276c:	f003 0307 	and.w	r3, r3, #7
 8002770:	600b      	str	r3, [r1, #0]
 8002772:	4770      	bx	lr
 8002774:	40021000 	.word	0x40021000
 8002778:	40022000 	.word	0x40022000

0800277c <HAL_RCCEx_PeriphCLKConfig>:
 800277c:	e92d 41f0 	stmdb	sp!, {r4, r5, r6, r7, r8, lr}
 8002780:	4604      	mov	r4, r0
 8002782:	6800      	ldr	r0, [r0, #0]
 8002784:	b082      	sub	sp, #8
 8002786:	07c1      	lsls	r1, r0, #31
 8002788:	d52c      	bpl.n	80027e4 <HAL_RCCEx_PeriphCLKConfig+0x68>
 800278a:	4b3a      	ldr	r3, [pc, #232]	; (8002874 <HAL_RCCEx_PeriphCLKConfig+0xf8>)
 800278c:	69da      	ldr	r2, [r3, #28]
 800278e:	00d2      	lsls	r2, r2, #3
 8002790:	d53f      	bpl.n	8002812 <HAL_RCCEx_PeriphCLKConfig+0x96>
 8002792:	4d39      	ldr	r5, [pc, #228]	; (8002878 <HAL_RCCEx_PeriphCLKConfig+0xfc>)
 8002794:	2600      	movs	r6, #0
 8002796:	682b      	ldr	r3, [r5, #0]
 8002798:	05df      	lsls	r7, r3, #23
 800279a:	d548      	bpl.n	800282e <HAL_RCCEx_PeriphCLKConfig+0xb2>
 800279c:	4d35      	ldr	r5, [pc, #212]	; (8002874 <HAL_RCCEx_PeriphCLKConfig+0xf8>)
 800279e:	6a2b      	ldr	r3, [r5, #32]
 80027a0:	f413 7340 	ands.w	r3, r3, #768	; 0x300
 80027a4:	d011      	beq.n	80027ca <HAL_RCCEx_PeriphCLKConfig+0x4e>
 80027a6:	6861      	ldr	r1, [r4, #4]
 80027a8:	f401 7240 	and.w	r2, r1, #768	; 0x300
 80027ac:	429a      	cmp	r2, r3
 80027ae:	d00d      	beq.n	80027cc <HAL_RCCEx_PeriphCLKConfig+0x50>
 80027b0:	2701      	movs	r7, #1
 80027b2:	2000      	movs	r0, #0
 80027b4:	6a2b      	ldr	r3, [r5, #32]
 80027b6:	4a31      	ldr	r2, [pc, #196]	; (800287c <HAL_RCCEx_PeriphCLKConfig+0x100>)
 80027b8:	f423 7140 	bic.w	r1, r3, #768	; 0x300
 80027bc:	f8c2 7440 	str.w	r7, [r2, #1088]	; 0x440
 80027c0:	f8c2 0440 	str.w	r0, [r2, #1088]	; 0x440
 80027c4:	6229      	str	r1, [r5, #32]
 80027c6:	07d9      	lsls	r1, r3, #31
 80027c8:	d444      	bmi.n	8002854 <HAL_RCCEx_PeriphCLKConfig+0xd8>
 80027ca:	6861      	ldr	r1, [r4, #4]
 80027cc:	4a29      	ldr	r2, [pc, #164]	; (8002874 <HAL_RCCEx_PeriphCLKConfig+0xf8>)
 80027ce:	6a13      	ldr	r3, [r2, #32]
 80027d0:	f423 7340 	bic.w	r3, r3, #768	; 0x300
 80027d4:	430b      	orrs	r3, r1
 80027d6:	6213      	str	r3, [r2, #32]
 80027d8:	b11e      	cbz	r6, 80027e2 <HAL_RCCEx_PeriphCLKConfig+0x66>
 80027da:	69d3      	ldr	r3, [r2, #28]
 80027dc:	f023 5380 	bic.w	r3, r3, #268435456	; 0x10000000
 80027e0:	61d3      	str	r3, [r2, #28]
 80027e2:	6820      	ldr	r0, [r4, #0]
 80027e4:	0783      	lsls	r3, r0, #30
 80027e6:	d506      	bpl.n	80027f6 <HAL_RCCEx_PeriphCLKConfig+0x7a>
 80027e8:	4922      	ldr	r1, [pc, #136]	; (8002874 <HAL_RCCEx_PeriphCLKConfig+0xf8>)
 80027ea:	68a3      	ldr	r3, [r4, #8]
 80027ec:	684a      	ldr	r2, [r1, #4]
 80027ee:	f422 4240 	bic.w	r2, r2, #49152	; 0xc000
 80027f2:	431a      	orrs	r2, r3
 80027f4:	604a      	str	r2, [r1, #4]
 80027f6:	f010 0010 	ands.w	r0, r0, #16
 80027fa:	d007      	beq.n	800280c <HAL_RCCEx_PeriphCLKConfig+0x90>
 80027fc:	2000      	movs	r0, #0
 80027fe:	4a1d      	ldr	r2, [pc, #116]	; (8002874 <HAL_RCCEx_PeriphCLKConfig+0xf8>)
 8002800:	68e1      	ldr	r1, [r4, #12]
 8002802:	6853      	ldr	r3, [r2, #4]
 8002804:	f423 0380 	bic.w	r3, r3, #4194304	; 0x400000
 8002808:	430b      	orrs	r3, r1
 800280a:	6053      	str	r3, [r2, #4]
 800280c:	b002      	add	sp, #8
 800280e:	e8bd 81f0 	ldmia.w	sp!, {r4, r5, r6, r7, r8, pc}
 8002812:	69da      	ldr	r2, [r3, #28]
 8002814:	4d18      	ldr	r5, [pc, #96]	; (8002878 <HAL_RCCEx_PeriphCLKConfig+0xfc>)
 8002816:	f042 5280 	orr.w	r2, r2, #268435456	; 0x10000000
 800281a:	61da      	str	r2, [r3, #28]
 800281c:	69db      	ldr	r3, [r3, #28]
 800281e:	2601      	movs	r6, #1
 8002820:	f003 5380 	and.w	r3, r3, #268435456	; 0x10000000
 8002824:	9301      	str	r3, [sp, #4]
 8002826:	9b01      	ldr	r3, [sp, #4]
 8002828:	682b      	ldr	r3, [r5, #0]
 800282a:	05df      	lsls	r7, r3, #23
 800282c:	d4b6      	bmi.n	800279c <HAL_RCCEx_PeriphCLKConfig+0x20>
 800282e:	682b      	ldr	r3, [r5, #0]
 8002830:	f443 7380 	orr.w	r3, r3, #256	; 0x100
 8002834:	602b      	str	r3, [r5, #0]
 8002836:	f7fe fec3 	bl	80015c0 <HAL_GetTick>
 800283a:	4607      	mov	r7, r0
 800283c:	682b      	ldr	r3, [r5, #0]
 800283e:	05d8      	lsls	r0, r3, #23
 8002840:	d4ac      	bmi.n	800279c <HAL_RCCEx_PeriphCLKConfig+0x20>
 8002842:	f7fe febd 	bl	80015c0 <HAL_GetTick>
 8002846:	1bc3      	subs	r3, r0, r7
 8002848:	2b64      	cmp	r3, #100	; 0x64
 800284a:	d9f7      	bls.n	800283c <HAL_RCCEx_PeriphCLKConfig+0xc0>
 800284c:	2003      	movs	r0, #3
 800284e:	b002      	add	sp, #8
 8002850:	e8bd 81f0 	ldmia.w	sp!, {r4, r5, r6, r7, r8, pc}
 8002854:	f7fe feb4 	bl	80015c0 <HAL_GetTick>
 8002858:	f241 3888 	movw	r8, #5000	; 0x1388
 800285c:	4607      	mov	r7, r0
 800285e:	e004      	b.n	800286a <HAL_RCCEx_PeriphCLKConfig+0xee>
 8002860:	f7fe feae 	bl	80015c0 <HAL_GetTick>
 8002864:	1bc0      	subs	r0, r0, r7
 8002866:	4540      	cmp	r0, r8
 8002868:	d8f0      	bhi.n	800284c <HAL_RCCEx_PeriphCLKConfig+0xd0>
 800286a:	6a2b      	ldr	r3, [r5, #32]
 800286c:	079a      	lsls	r2, r3, #30
 800286e:	d5f7      	bpl.n	8002860 <HAL_RCCEx_PeriphCLKConfig+0xe4>
 8002870:	e7ab      	b.n	80027ca <HAL_RCCEx_PeriphCLKConfig+0x4e>
 8002872:	bf00      	nop
 8002874:	40021000 	.word	0x40021000
 8002878:	40007000 	.word	0x40007000
 800287c:	42420000 	.word	0x42420000

08002880 <HAL_TIM_Base_MspInit>:
 8002880:	4770      	bx	lr
 8002882:	bf00      	nop

08002884 <HAL_TIM_Base_Init>:
 8002884:	2800      	cmp	r0, #0
 8002886:	d066      	beq.n	8002956 <HAL_TIM_Base_Init+0xd2>
 8002888:	b510      	push	{r4, lr}
 800288a:	f890 303d 	ldrb.w	r3, [r0, #61]	; 0x3d
 800288e:	4604      	mov	r4, r0
 8002890:	f003 02ff 	and.w	r2, r3, #255	; 0xff
 8002894:	2b00      	cmp	r3, #0
 8002896:	d045      	beq.n	8002924 <HAL_TIM_Base_Init+0xa0>
 8002898:	2302      	movs	r3, #2
 800289a:	6822      	ldr	r2, [r4, #0]
 800289c:	492f      	ldr	r1, [pc, #188]	; (800295c <HAL_TIM_Base_Init+0xd8>)
 800289e:	f884 303d 	strb.w	r3, [r4, #61]	; 0x3d
 80028a2:	428a      	cmp	r2, r1
 80028a4:	6813      	ldr	r3, [r2, #0]
 80028a6:	d042      	beq.n	800292e <HAL_TIM_Base_Init+0xaa>
 80028a8:	f1b2 4f80 	cmp.w	r2, #1073741824	; 0x40000000
 80028ac:	d011      	beq.n	80028d2 <HAL_TIM_Base_Init+0x4e>
 80028ae:	f5a1 3194 	sub.w	r1, r1, #75776	; 0x12800
 80028b2:	428a      	cmp	r2, r1
 80028b4:	d00d      	beq.n	80028d2 <HAL_TIM_Base_Init+0x4e>
 80028b6:	f501 6180 	add.w	r1, r1, #1024	; 0x400
 80028ba:	428a      	cmp	r2, r1
 80028bc:	d009      	beq.n	80028d2 <HAL_TIM_Base_Init+0x4e>
 80028be:	69a0      	ldr	r0, [r4, #24]
 80028c0:	f023 0380 	bic.w	r3, r3, #128	; 0x80
 80028c4:	4303      	orrs	r3, r0
 80028c6:	68e1      	ldr	r1, [r4, #12]
 80028c8:	6013      	str	r3, [r2, #0]
 80028ca:	6863      	ldr	r3, [r4, #4]
 80028cc:	62d1      	str	r1, [r2, #44]	; 0x2c
 80028ce:	6293      	str	r3, [r2, #40]	; 0x28
 80028d0:	e010      	b.n	80028f4 <HAL_TIM_Base_Init+0x70>
 80028d2:	68a1      	ldr	r1, [r4, #8]
 80028d4:	f023 0370 	bic.w	r3, r3, #112	; 0x70
 80028d8:	6920      	ldr	r0, [r4, #16]
 80028da:	430b      	orrs	r3, r1
 80028dc:	f423 7340 	bic.w	r3, r3, #768	; 0x300
 80028e0:	69a1      	ldr	r1, [r4, #24]
 80028e2:	4303      	orrs	r3, r0
 80028e4:	f023 0380 	bic.w	r3, r3, #128	; 0x80
 80028e8:	68e0      	ldr	r0, [r4, #12]
 80028ea:	430b      	orrs	r3, r1
 80028ec:	6861      	ldr	r1, [r4, #4]
 80028ee:	6013      	str	r3, [r2, #0]
 80028f0:	62d0      	str	r0, [r2, #44]	; 0x2c
 80028f2:	6291      	str	r1, [r2, #40]	; 0x28
 80028f4:	2301      	movs	r3, #1
 80028f6:	6153      	str	r3, [r2, #20]
 80028f8:	f884 3046 	strb.w	r3, [r4, #70]	; 0x46
 80028fc:	f884 303e 	strb.w	r3, [r4, #62]	; 0x3e
 8002900:	f884 303f 	strb.w	r3, [r4, #63]	; 0x3f
 8002904:	f884 3040 	strb.w	r3, [r4, #64]	; 0x40
 8002908:	f884 3041 	strb.w	r3, [r4, #65]	; 0x41
 800290c:	f884 3042 	strb.w	r3, [r4, #66]	; 0x42
 8002910:	f884 3043 	strb.w	r3, [r4, #67]	; 0x43
 8002914:	f884 3044 	strb.w	r3, [r4, #68]	; 0x44
 8002918:	f884 3045 	strb.w	r3, [r4, #69]	; 0x45
 800291c:	f884 303d 	strb.w	r3, [r4, #61]	; 0x3d
 8002920:	2000      	movs	r0, #0
 8002922:	bd10      	pop	{r4, pc}
 8002924:	f880 203c 	strb.w	r2, [r0, #60]	; 0x3c
 8002928:	f7ff ffaa 	bl	8002880 <HAL_TIM_Base_MspInit>
 800292c:	e7b4      	b.n	8002898 <HAL_TIM_Base_Init+0x14>
 800292e:	68a0      	ldr	r0, [r4, #8]
 8002930:	f023 0370 	bic.w	r3, r3, #112	; 0x70
 8002934:	6921      	ldr	r1, [r4, #16]
 8002936:	4303      	orrs	r3, r0
 8002938:	f423 7340 	bic.w	r3, r3, #768	; 0x300
 800293c:	430b      	orrs	r3, r1
 800293e:	69a1      	ldr	r1, [r4, #24]
 8002940:	f023 0380 	bic.w	r3, r3, #128	; 0x80
 8002944:	430b      	orrs	r3, r1
 8002946:	6013      	str	r3, [r2, #0]
 8002948:	68e3      	ldr	r3, [r4, #12]
 800294a:	62d3      	str	r3, [r2, #44]	; 0x2c
 800294c:	6863      	ldr	r3, [r4, #4]
 800294e:	6293      	str	r3, [r2, #40]	; 0x28
 8002950:	6963      	ldr	r3, [r4, #20]
 8002952:	6313      	str	r3, [r2, #48]	; 0x30
 8002954:	e7ce      	b.n	80028f4 <HAL_TIM_Base_Init+0x70>
 8002956:	2001      	movs	r0, #1
 8002958:	4770      	bx	lr
 800295a:	bf00      	nop
 800295c:	40012c00 	.word	0x40012c00

08002960 <HAL_TIM_Base_Start_IT>:
 8002960:	f890 303d 	ldrb.w	r3, [r0, #61]	; 0x3d
 8002964:	2b01      	cmp	r3, #1
 8002966:	d11f      	bne.n	80029a8 <HAL_TIM_Base_Start_IT+0x48>
 8002968:	2202      	movs	r2, #2
 800296a:	6803      	ldr	r3, [r0, #0]
 800296c:	f880 203d 	strb.w	r2, [r0, #61]	; 0x3d
 8002970:	68da      	ldr	r2, [r3, #12]
 8002972:	490f      	ldr	r1, [pc, #60]	; (80029b0 <HAL_TIM_Base_Start_IT+0x50>)
 8002974:	f042 0201 	orr.w	r2, r2, #1
 8002978:	428b      	cmp	r3, r1
 800297a:	60da      	str	r2, [r3, #12]
 800297c:	d009      	beq.n	8002992 <HAL_TIM_Base_Start_IT+0x32>
 800297e:	f1b3 4f80 	cmp.w	r3, #1073741824	; 0x40000000
 8002982:	d006      	beq.n	8002992 <HAL_TIM_Base_Start_IT+0x32>
 8002984:	4a0b      	ldr	r2, [pc, #44]	; (80029b4 <HAL_TIM_Base_Start_IT+0x54>)
 8002986:	4293      	cmp	r3, r2
 8002988:	d003      	beq.n	8002992 <HAL_TIM_Base_Start_IT+0x32>
 800298a:	f502 6280 	add.w	r2, r2, #1024	; 0x400
 800298e:	4293      	cmp	r3, r2
 8002990:	d104      	bne.n	800299c <HAL_TIM_Base_Start_IT+0x3c>
 8002992:	689a      	ldr	r2, [r3, #8]
 8002994:	f002 0207 	and.w	r2, r2, #7
 8002998:	2a06      	cmp	r2, #6
 800299a:	d007      	beq.n	80029ac <HAL_TIM_Base_Start_IT+0x4c>
 800299c:	681a      	ldr	r2, [r3, #0]
 800299e:	2000      	movs	r0, #0
 80029a0:	f042 0201 	orr.w	r2, r2, #1
 80029a4:	601a      	str	r2, [r3, #0]
 80029a6:	4770      	bx	lr
 80029a8:	2001      	movs	r0, #1
 80029aa:	4770      	bx	lr
 80029ac:	2000      	movs	r0, #0
 80029ae:	4770      	bx	lr
 80029b0:	40012c00 	.word	0x40012c00
 80029b4:	40000400 	.word	0x40000400

080029b8 <HAL_TIM_OC_DelayElapsedCallback>:
 80029b8:	4770      	bx	lr
 80029ba:	bf00      	nop

080029bc <HAL_TIM_IC_CaptureCallback>:
 80029bc:	4770      	bx	lr
 80029be:	bf00      	nop

080029c0 <HAL_TIM_PWM_PulseFinishedCallback>:
 80029c0:	4770      	bx	lr
 80029c2:	bf00      	nop

080029c4 <HAL_TIM_TriggerCallback>:
 80029c4:	4770      	bx	lr
 80029c6:	bf00      	nop

080029c8 <HAL_TIM_IRQHandler>:
 80029c8:	6803      	ldr	r3, [r0, #0]
 80029ca:	b510      	push	{r4, lr}
 80029cc:	691a      	ldr	r2, [r3, #16]
 80029ce:	4604      	mov	r4, r0
 80029d0:	0791      	lsls	r1, r2, #30
 80029d2:	d502      	bpl.n	80029da <HAL_TIM_IRQHandler+0x12>
 80029d4:	68da      	ldr	r2, [r3, #12]
 80029d6:	0792      	lsls	r2, r2, #30
 80029d8:	d45f      	bmi.n	8002a9a <HAL_TIM_IRQHandler+0xd2>
 80029da:	691a      	ldr	r2, [r3, #16]
 80029dc:	0750      	lsls	r0, r2, #29
 80029de:	d502      	bpl.n	80029e6 <HAL_TIM_IRQHandler+0x1e>
 80029e0:	68da      	ldr	r2, [r3, #12]
 80029e2:	0751      	lsls	r1, r2, #29
 80029e4:	d446      	bmi.n	8002a74 <HAL_TIM_IRQHandler+0xac>
 80029e6:	691a      	ldr	r2, [r3, #16]
 80029e8:	0712      	lsls	r2, r2, #28
 80029ea:	d502      	bpl.n	80029f2 <HAL_TIM_IRQHandler+0x2a>
 80029ec:	68da      	ldr	r2, [r3, #12]
 80029ee:	0710      	lsls	r0, r2, #28
 80029f0:	d42e      	bmi.n	8002a50 <HAL_TIM_IRQHandler+0x88>
 80029f2:	691a      	ldr	r2, [r3, #16]
 80029f4:	06d2      	lsls	r2, r2, #27
 80029f6:	d502      	bpl.n	80029fe <HAL_TIM_IRQHandler+0x36>
 80029f8:	68da      	ldr	r2, [r3, #12]
 80029fa:	06d0      	lsls	r0, r2, #27
 80029fc:	d418      	bmi.n	8002a30 <HAL_TIM_IRQHandler+0x68>
 80029fe:	691a      	ldr	r2, [r3, #16]
 8002a00:	07d1      	lsls	r1, r2, #31
 8002a02:	d502      	bpl.n	8002a0a <HAL_TIM_IRQHandler+0x42>
 8002a04:	68da      	ldr	r2, [r3, #12]
 8002a06:	07d2      	lsls	r2, r2, #31
 8002a08:	d45d      	bmi.n	8002ac6 <HAL_TIM_IRQHandler+0xfe>
 8002a0a:	691a      	ldr	r2, [r3, #16]
 8002a0c:	0610      	lsls	r0, r2, #24
 8002a0e:	d502      	bpl.n	8002a16 <HAL_TIM_IRQHandler+0x4e>
 8002a10:	68da      	ldr	r2, [r3, #12]
 8002a12:	0611      	lsls	r1, r2, #24
 8002a14:	d45f      	bmi.n	8002ad6 <HAL_TIM_IRQHandler+0x10e>
 8002a16:	691a      	ldr	r2, [r3, #16]
 8002a18:	0652      	lsls	r2, r2, #25
 8002a1a:	d502      	bpl.n	8002a22 <HAL_TIM_IRQHandler+0x5a>
 8002a1c:	68da      	ldr	r2, [r3, #12]
 8002a1e:	0650      	lsls	r0, r2, #25
 8002a20:	d461      	bmi.n	8002ae6 <HAL_TIM_IRQHandler+0x11e>
 8002a22:	691a      	ldr	r2, [r3, #16]
 8002a24:	0691      	lsls	r1, r2, #26
 8002a26:	d502      	bpl.n	8002a2e <HAL_TIM_IRQHandler+0x66>
 8002a28:	68da      	ldr	r2, [r3, #12]
 8002a2a:	0692      	lsls	r2, r2, #26
 8002a2c:	d443      	bmi.n	8002ab6 <HAL_TIM_IRQHandler+0xee>
 8002a2e:	bd10      	pop	{r4, pc}
 8002a30:	f06f 0110 	mvn.w	r1, #16
 8002a34:	2208      	movs	r2, #8
 8002a36:	6119      	str	r1, [r3, #16]
 8002a38:	7722      	strb	r2, [r4, #28]
 8002a3a:	69db      	ldr	r3, [r3, #28]
 8002a3c:	4620      	mov	r0, r4
 8002a3e:	f413 7f40 	tst.w	r3, #768	; 0x300
 8002a42:	d064      	beq.n	8002b0e <HAL_TIM_IRQHandler+0x146>
 8002a44:	f7ff ffba 	bl	80029bc <HAL_TIM_IC_CaptureCallback>
 8002a48:	2200      	movs	r2, #0
 8002a4a:	6823      	ldr	r3, [r4, #0]
 8002a4c:	7722      	strb	r2, [r4, #28]
 8002a4e:	e7d6      	b.n	80029fe <HAL_TIM_IRQHandler+0x36>
 8002a50:	f06f 0108 	mvn.w	r1, #8
 8002a54:	2204      	movs	r2, #4
 8002a56:	6119      	str	r1, [r3, #16]
 8002a58:	7722      	strb	r2, [r4, #28]
 8002a5a:	69db      	ldr	r3, [r3, #28]
 8002a5c:	4620      	mov	r0, r4
 8002a5e:	0799      	lsls	r1, r3, #30
 8002a60:	d152      	bne.n	8002b08 <HAL_TIM_IRQHandler+0x140>
 8002a62:	f7ff ffa9 	bl	80029b8 <HAL_TIM_OC_DelayElapsedCallback>
 8002a66:	4620      	mov	r0, r4
 8002a68:	f7ff ffaa 	bl	80029c0 <HAL_TIM_PWM_PulseFinishedCallback>
 8002a6c:	2200      	movs	r2, #0
 8002a6e:	6823      	ldr	r3, [r4, #0]
 8002a70:	7722      	strb	r2, [r4, #28]
 8002a72:	e7be      	b.n	80029f2 <HAL_TIM_IRQHandler+0x2a>
 8002a74:	f06f 0104 	mvn.w	r1, #4
 8002a78:	2202      	movs	r2, #2
 8002a7a:	6119      	str	r1, [r3, #16]
 8002a7c:	7722      	strb	r2, [r4, #28]
 8002a7e:	699b      	ldr	r3, [r3, #24]
 8002a80:	4620      	mov	r0, r4
 8002a82:	f413 7f40 	tst.w	r3, #768	; 0x300
 8002a86:	d13c      	bne.n	8002b02 <HAL_TIM_IRQHandler+0x13a>
 8002a88:	f7ff ff96 	bl	80029b8 <HAL_TIM_OC_DelayElapsedCallback>
 8002a8c:	4620      	mov	r0, r4
 8002a8e:	f7ff ff97 	bl	80029c0 <HAL_TIM_PWM_PulseFinishedCallback>
 8002a92:	2200      	movs	r2, #0
 8002a94:	6823      	ldr	r3, [r4, #0]
 8002a96:	7722      	strb	r2, [r4, #28]
 8002a98:	e7a5      	b.n	80029e6 <HAL_TIM_IRQHandler+0x1e>
 8002a9a:	f06f 0102 	mvn.w	r1, #2
 8002a9e:	2201      	movs	r2, #1
 8002aa0:	6119      	str	r1, [r3, #16]
 8002aa2:	7702      	strb	r2, [r0, #28]
 8002aa4:	699b      	ldr	r3, [r3, #24]
 8002aa6:	079b      	lsls	r3, r3, #30
 8002aa8:	d025      	beq.n	8002af6 <HAL_TIM_IRQHandler+0x12e>
 8002aaa:	f7ff ff87 	bl	80029bc <HAL_TIM_IC_CaptureCallback>
 8002aae:	2200      	movs	r2, #0
 8002ab0:	6823      	ldr	r3, [r4, #0]
 8002ab2:	7722      	strb	r2, [r4, #28]
 8002ab4:	e791      	b.n	80029da <HAL_TIM_IRQHandler+0x12>
 8002ab6:	f06f 0220 	mvn.w	r2, #32
 8002aba:	4620      	mov	r0, r4
 8002abc:	e8bd 4010 	ldmia.w	sp!, {r4, lr}
 8002ac0:	611a      	str	r2, [r3, #16]
 8002ac2:	f000 b82b 	b.w	8002b1c <HAL_TIMEx_CommutCallback>
 8002ac6:	f06f 0201 	mvn.w	r2, #1
 8002aca:	4620      	mov	r0, r4
 8002acc:	611a      	str	r2, [r3, #16]
 8002ace:	f7fe fc49 	bl	8001364 <HAL_TIM_PeriodElapsedCallback>
 8002ad2:	6823      	ldr	r3, [r4, #0]
 8002ad4:	e799      	b.n	8002a0a <HAL_TIM_IRQHandler+0x42>
 8002ad6:	f06f 0280 	mvn.w	r2, #128	; 0x80
 8002ada:	4620      	mov	r0, r4
 8002adc:	611a      	str	r2, [r3, #16]
 8002ade:	f000 f81f 	bl	8002b20 <HAL_TIMEx_BreakCallback>
 8002ae2:	6823      	ldr	r3, [r4, #0]
 8002ae4:	e797      	b.n	8002a16 <HAL_TIM_IRQHandler+0x4e>
 8002ae6:	f06f 0240 	mvn.w	r2, #64	; 0x40
 8002aea:	4620      	mov	r0, r4
 8002aec:	611a      	str	r2, [r3, #16]
 8002aee:	f7ff ff69 	bl	80029c4 <HAL_TIM_TriggerCallback>
 8002af2:	6823      	ldr	r3, [r4, #0]
 8002af4:	e795      	b.n	8002a22 <HAL_TIM_IRQHandler+0x5a>
 8002af6:	f7ff ff5f 	bl	80029b8 <HAL_TIM_OC_DelayElapsedCallback>
 8002afa:	4620      	mov	r0, r4
 8002afc:	f7ff ff60 	bl	80029c0 <HAL_TIM_PWM_PulseFinishedCallback>
 8002b00:	e7d5      	b.n	8002aae <HAL_TIM_IRQHandler+0xe6>
 8002b02:	f7ff ff5b 	bl	80029bc <HAL_TIM_IC_CaptureCallback>
 8002b06:	e7c4      	b.n	8002a92 <HAL_TIM_IRQHandler+0xca>
 8002b08:	f7ff ff58 	bl	80029bc <HAL_TIM_IC_CaptureCallback>
 8002b0c:	e7ae      	b.n	8002a6c <HAL_TIM_IRQHandler+0xa4>
 8002b0e:	f7ff ff53 	bl	80029b8 <HAL_TIM_OC_DelayElapsedCallback>
 8002b12:	4620      	mov	r0, r4
 8002b14:	f7ff ff54 	bl	80029c0 <HAL_TIM_PWM_PulseFinishedCallback>
 8002b18:	e796      	b.n	8002a48 <HAL_TIM_IRQHandler+0x80>
 8002b1a:	bf00      	nop

08002b1c <HAL_TIMEx_CommutCallback>:
 8002b1c:	4770      	bx	lr
 8002b1e:	bf00      	nop

08002b20 <HAL_TIMEx_BreakCallback>:
 8002b20:	4770      	bx	lr
 8002b22:	bf00      	nop

08002b24 <osKernelStart>:
 8002b24:	b508      	push	{r3, lr}
 8002b26:	f000 f9d9 	bl	8002edc <vTaskStartScheduler>
 8002b2a:	2000      	movs	r0, #0
 8002b2c:	bd08      	pop	{r3, pc}
 8002b2e:	bf00      	nop

08002b30 <vListInitialise>:
 8002b30:	f04f 31ff 	mov.w	r1, #4294967295
 8002b34:	2200      	movs	r2, #0
 8002b36:	f100 0308 	add.w	r3, r0, #8
 8002b3a:	e9c0 3101 	strd	r3, r1, [r0, #4]
 8002b3e:	e9c0 3303 	strd	r3, r3, [r0, #12]
 8002b42:	6002      	str	r2, [r0, #0]
 8002b44:	4770      	bx	lr
 8002b46:	bf00      	nop

08002b48 <vListInitialiseItem>:
 8002b48:	2300      	movs	r3, #0
 8002b4a:	6103      	str	r3, [r0, #16]
 8002b4c:	4770      	bx	lr
 8002b4e:	bf00      	nop

08002b50 <vListInsertEnd>:
 8002b50:	6843      	ldr	r3, [r0, #4]
 8002b52:	b410      	push	{r4}
 8002b54:	689c      	ldr	r4, [r3, #8]
 8002b56:	6802      	ldr	r2, [r0, #0]
 8002b58:	608c      	str	r4, [r1, #8]
 8002b5a:	689c      	ldr	r4, [r3, #8]
 8002b5c:	3201      	adds	r2, #1
 8002b5e:	604b      	str	r3, [r1, #4]
 8002b60:	6061      	str	r1, [r4, #4]
 8002b62:	6099      	str	r1, [r3, #8]
 8002b64:	bc10      	pop	{r4}
 8002b66:	6108      	str	r0, [r1, #16]
 8002b68:	6002      	str	r2, [r0, #0]
 8002b6a:	4770      	bx	lr

08002b6c <vListInsert>:
 8002b6c:	b430      	push	{r4, r5}
 8002b6e:	680d      	ldr	r5, [r1, #0]
 8002b70:	1c6b      	adds	r3, r5, #1
 8002b72:	d010      	beq.n	8002b96 <vListInsert+0x2a>
 8002b74:	f100 0308 	add.w	r3, r0, #8
 8002b78:	461c      	mov	r4, r3
 8002b7a:	685b      	ldr	r3, [r3, #4]
 8002b7c:	681a      	ldr	r2, [r3, #0]
 8002b7e:	42aa      	cmp	r2, r5
 8002b80:	d9fa      	bls.n	8002b78 <vListInsert+0xc>
 8002b82:	6802      	ldr	r2, [r0, #0]
 8002b84:	604b      	str	r3, [r1, #4]
 8002b86:	3201      	adds	r2, #1
 8002b88:	6099      	str	r1, [r3, #8]
 8002b8a:	608c      	str	r4, [r1, #8]
 8002b8c:	6061      	str	r1, [r4, #4]
 8002b8e:	6108      	str	r0, [r1, #16]
 8002b90:	bc30      	pop	{r4, r5}
 8002b92:	6002      	str	r2, [r0, #0]
 8002b94:	4770      	bx	lr
 8002b96:	6904      	ldr	r4, [r0, #16]
 8002b98:	6863      	ldr	r3, [r4, #4]
 8002b9a:	e7f2      	b.n	8002b82 <vListInsert+0x16>

08002b9c <uxListRemove>:
 8002b9c:	6903      	ldr	r3, [r0, #16]
 8002b9e:	b410      	push	{r4}
 8002ba0:	e9d0 1201 	ldrd	r1, r2, [r0, #4]
 8002ba4:	685c      	ldr	r4, [r3, #4]
 8002ba6:	608a      	str	r2, [r1, #8]
 8002ba8:	6051      	str	r1, [r2, #4]
 8002baa:	2100      	movs	r1, #0
 8002bac:	4284      	cmp	r4, r0
 8002bae:	bf08      	it	eq
 8002bb0:	605a      	streq	r2, [r3, #4]
 8002bb2:	681a      	ldr	r2, [r3, #0]
 8002bb4:	6101      	str	r1, [r0, #16]
 8002bb6:	3a01      	subs	r2, #1
 8002bb8:	601a      	str	r2, [r3, #0]
 8002bba:	6818      	ldr	r0, [r3, #0]
 8002bbc:	bc10      	pop	{r4}
 8002bbe:	4770      	bx	lr

08002bc0 <prvAddNewTaskToReadyList>:
 8002bc0:	e92d 43f8 	stmdb	sp!, {r3, r4, r5, r6, r7, r8, r9, lr}
 8002bc4:	4604      	mov	r4, r0
 8002bc6:	f000 fc3d 	bl	8003444 <vPortEnterCritical>
 8002bca:	4a35      	ldr	r2, [pc, #212]	; (8002ca0 <prvAddNewTaskToReadyList+0xe0>)
 8002bcc:	4d35      	ldr	r5, [pc, #212]	; (8002ca4 <prvAddNewTaskToReadyList+0xe4>)
 8002bce:	6813      	ldr	r3, [r2, #0]
 8002bd0:	3301      	adds	r3, #1
 8002bd2:	6013      	str	r3, [r2, #0]
 8002bd4:	682b      	ldr	r3, [r5, #0]
 8002bd6:	2b00      	cmp	r3, #0
 8002bd8:	d034      	beq.n	8002c44 <prvAddNewTaskToReadyList+0x84>
 8002bda:	4f33      	ldr	r7, [pc, #204]	; (8002ca8 <prvAddNewTaskToReadyList+0xe8>)
 8002bdc:	683b      	ldr	r3, [r7, #0]
 8002bde:	b343      	cbz	r3, 8002c32 <prvAddNewTaskToReadyList+0x72>
 8002be0:	6ae2      	ldr	r2, [r4, #44]	; 0x2c
 8002be2:	f8df 80c8 	ldr.w	r8, [pc, #200]	; 8002cac <prvAddNewTaskToReadyList+0xec>
 8002be6:	2301      	movs	r3, #1
 8002be8:	4831      	ldr	r0, [pc, #196]	; (8002cb0 <prvAddNewTaskToReadyList+0xf0>)
 8002bea:	4e32      	ldr	r6, [pc, #200]	; (8002cb4 <prvAddNewTaskToReadyList+0xf4>)
 8002bec:	6801      	ldr	r1, [r0, #0]
 8002bee:	4419      	add	r1, r3
 8002bf0:	6001      	str	r1, [r0, #0]
 8002bf2:	6831      	ldr	r1, [r6, #0]
 8002bf4:	eb02 0082 	add.w	r0, r2, r2, lsl #2
 8002bf8:	4093      	lsls	r3, r2
 8002bfa:	430b      	orrs	r3, r1
 8002bfc:	eb08 0080 	add.w	r0, r8, r0, lsl #2
 8002c00:	1d21      	adds	r1, r4, #4
 8002c02:	6033      	str	r3, [r6, #0]
 8002c04:	f7ff ffa4 	bl	8002b50 <vListInsertEnd>
 8002c08:	f000 fc3e 	bl	8003488 <vPortExitCritical>
 8002c0c:	683b      	ldr	r3, [r7, #0]
 8002c0e:	b173      	cbz	r3, 8002c2e <prvAddNewTaskToReadyList+0x6e>
 8002c10:	682a      	ldr	r2, [r5, #0]
 8002c12:	6ae3      	ldr	r3, [r4, #44]	; 0x2c
 8002c14:	6ad2      	ldr	r2, [r2, #44]	; 0x2c
 8002c16:	429a      	cmp	r2, r3
 8002c18:	d209      	bcs.n	8002c2e <prvAddNewTaskToReadyList+0x6e>
 8002c1a:	f04f 23e0 	mov.w	r3, #3758153728	; 0xe000e000
 8002c1e:	f04f 5280 	mov.w	r2, #268435456	; 0x10000000
 8002c22:	f8c3 2d04 	str.w	r2, [r3, #3332]	; 0xd04
 8002c26:	f3bf 8f4f 	dsb	sy
 8002c2a:	f3bf 8f6f 	isb	sy
 8002c2e:	e8bd 83f8 	ldmia.w	sp!, {r3, r4, r5, r6, r7, r8, r9, pc}
 8002c32:	682b      	ldr	r3, [r5, #0]
 8002c34:	6ae2      	ldr	r2, [r4, #44]	; 0x2c
 8002c36:	6adb      	ldr	r3, [r3, #44]	; 0x2c
 8002c38:	f8df 8070 	ldr.w	r8, [pc, #112]	; 8002cac <prvAddNewTaskToReadyList+0xec>
 8002c3c:	4293      	cmp	r3, r2
 8002c3e:	bf98      	it	ls
 8002c40:	602c      	strls	r4, [r5, #0]
 8002c42:	e7d0      	b.n	8002be6 <prvAddNewTaskToReadyList+0x26>
 8002c44:	602c      	str	r4, [r5, #0]
 8002c46:	6813      	ldr	r3, [r2, #0]
 8002c48:	2b01      	cmp	r3, #1
 8002c4a:	d004      	beq.n	8002c56 <prvAddNewTaskToReadyList+0x96>
 8002c4c:	6ae2      	ldr	r2, [r4, #44]	; 0x2c
 8002c4e:	f8df 805c 	ldr.w	r8, [pc, #92]	; 8002cac <prvAddNewTaskToReadyList+0xec>
 8002c52:	4f15      	ldr	r7, [pc, #84]	; (8002ca8 <prvAddNewTaskToReadyList+0xe8>)
 8002c54:	e7c7      	b.n	8002be6 <prvAddNewTaskToReadyList+0x26>
 8002c56:	f8df 8054 	ldr.w	r8, [pc, #84]	; 8002cac <prvAddNewTaskToReadyList+0xec>
 8002c5a:	4646      	mov	r6, r8
 8002c5c:	f108 078c 	add.w	r7, r8, #140	; 0x8c
 8002c60:	4630      	mov	r0, r6
 8002c62:	3614      	adds	r6, #20
 8002c64:	f7ff ff64 	bl	8002b30 <vListInitialise>
 8002c68:	42b7      	cmp	r7, r6
 8002c6a:	d1f9      	bne.n	8002c60 <prvAddNewTaskToReadyList+0xa0>
 8002c6c:	f8df 9048 	ldr.w	r9, [pc, #72]	; 8002cb8 <prvAddNewTaskToReadyList+0xf8>
 8002c70:	4e12      	ldr	r6, [pc, #72]	; (8002cbc <prvAddNewTaskToReadyList+0xfc>)
 8002c72:	4648      	mov	r0, r9
 8002c74:	f7ff ff5c 	bl	8002b30 <vListInitialise>
 8002c78:	4630      	mov	r0, r6
 8002c7a:	f7ff ff59 	bl	8002b30 <vListInitialise>
 8002c7e:	4810      	ldr	r0, [pc, #64]	; (8002cc0 <prvAddNewTaskToReadyList+0x100>)
 8002c80:	f7ff ff56 	bl	8002b30 <vListInitialise>
 8002c84:	480f      	ldr	r0, [pc, #60]	; (8002cc4 <prvAddNewTaskToReadyList+0x104>)
 8002c86:	f7ff ff53 	bl	8002b30 <vListInitialise>
 8002c8a:	480f      	ldr	r0, [pc, #60]	; (8002cc8 <prvAddNewTaskToReadyList+0x108>)
 8002c8c:	f7ff ff50 	bl	8002b30 <vListInitialise>
 8002c90:	4b0e      	ldr	r3, [pc, #56]	; (8002ccc <prvAddNewTaskToReadyList+0x10c>)
 8002c92:	4f05      	ldr	r7, [pc, #20]	; (8002ca8 <prvAddNewTaskToReadyList+0xe8>)
 8002c94:	f8c3 9000 	str.w	r9, [r3]
 8002c98:	4b0d      	ldr	r3, [pc, #52]	; (8002cd0 <prvAddNewTaskToReadyList+0x110>)
 8002c9a:	6ae2      	ldr	r2, [r4, #44]	; 0x2c
 8002c9c:	601e      	str	r6, [r3, #0]
 8002c9e:	e7a2      	b.n	8002be6 <prvAddNewTaskToReadyList+0x26>
 8002ca0:	20000a00 	.word	0x20000a00
 8002ca4:	20000968 	.word	0x20000968
 8002ca8:	20000a5c 	.word	0x20000a5c
 8002cac:	20000974 	.word	0x20000974
 8002cb0:	20000a10 	.word	0x20000a10
 8002cb4:	20000a14 	.word	0x20000a14
 8002cb8:	20000a18 	.word	0x20000a18
 8002cbc:	20000a2c 	.word	0x20000a2c
 8002cc0:	20000a48 	.word	0x20000a48
 8002cc4:	20000a74 	.word	0x20000a74
 8002cc8:	20000a60 	.word	0x20000a60
 8002ccc:	2000096c 	.word	0x2000096c
 8002cd0:	20000970 	.word	0x20000970

08002cd4 <prvAddCurrentTaskToDelayedList>:
 8002cd4:	b5f8      	push	{r3, r4, r5, r6, r7, lr}
 8002cd6:	4b1b      	ldr	r3, [pc, #108]	; (8002d44 <prvAddCurrentTaskToDelayedList+0x70>)
 8002cd8:	4e1b      	ldr	r6, [pc, #108]	; (8002d48 <prvAddCurrentTaskToDelayedList+0x74>)
 8002cda:	4605      	mov	r5, r0
 8002cdc:	681c      	ldr	r4, [r3, #0]
 8002cde:	6830      	ldr	r0, [r6, #0]
 8002ce0:	460f      	mov	r7, r1
 8002ce2:	3004      	adds	r0, #4
 8002ce4:	f7ff ff5a 	bl	8002b9c <uxListRemove>
 8002ce8:	b940      	cbnz	r0, 8002cfc <prvAddCurrentTaskToDelayedList+0x28>
 8002cea:	2201      	movs	r2, #1
 8002cec:	6833      	ldr	r3, [r6, #0]
 8002cee:	4917      	ldr	r1, [pc, #92]	; (8002d4c <prvAddCurrentTaskToDelayedList+0x78>)
 8002cf0:	6adb      	ldr	r3, [r3, #44]	; 0x2c
 8002cf2:	409a      	lsls	r2, r3
 8002cf4:	680b      	ldr	r3, [r1, #0]
 8002cf6:	ea23 0302 	bic.w	r3, r3, r2
 8002cfa:	600b      	str	r3, [r1, #0]
 8002cfc:	1c6b      	adds	r3, r5, #1
 8002cfe:	d017      	beq.n	8002d30 <prvAddCurrentTaskToDelayedList+0x5c>
 8002d00:	6833      	ldr	r3, [r6, #0]
 8002d02:	1964      	adds	r4, r4, r5
 8002d04:	605c      	str	r4, [r3, #4]
 8002d06:	d307      	bcc.n	8002d18 <prvAddCurrentTaskToDelayedList+0x44>
 8002d08:	4b11      	ldr	r3, [pc, #68]	; (8002d50 <prvAddCurrentTaskToDelayedList+0x7c>)
 8002d0a:	6818      	ldr	r0, [r3, #0]
 8002d0c:	6831      	ldr	r1, [r6, #0]
 8002d0e:	e8bd 40f8 	ldmia.w	sp!, {r3, r4, r5, r6, r7, lr}
 8002d12:	3104      	adds	r1, #4
 8002d14:	f7ff bf2a 	b.w	8002b6c <vListInsert>
 8002d18:	4b0e      	ldr	r3, [pc, #56]	; (8002d54 <prvAddCurrentTaskToDelayedList+0x80>)
 8002d1a:	6818      	ldr	r0, [r3, #0]
 8002d1c:	6831      	ldr	r1, [r6, #0]
 8002d1e:	3104      	adds	r1, #4
 8002d20:	f7ff ff24 	bl	8002b6c <vListInsert>
 8002d24:	4b0c      	ldr	r3, [pc, #48]	; (8002d58 <prvAddCurrentTaskToDelayedList+0x84>)
 8002d26:	681a      	ldr	r2, [r3, #0]
 8002d28:	42a2      	cmp	r2, r4
 8002d2a:	bf88      	it	hi
 8002d2c:	601c      	strhi	r4, [r3, #0]
 8002d2e:	bdf8      	pop	{r3, r4, r5, r6, r7, pc}
 8002d30:	2f00      	cmp	r7, #0
 8002d32:	d0e5      	beq.n	8002d00 <prvAddCurrentTaskToDelayedList+0x2c>
 8002d34:	6831      	ldr	r1, [r6, #0]
 8002d36:	4809      	ldr	r0, [pc, #36]	; (8002d5c <prvAddCurrentTaskToDelayedList+0x88>)
 8002d38:	3104      	adds	r1, #4
 8002d3a:	e8bd 40f8 	ldmia.w	sp!, {r3, r4, r5, r6, r7, lr}
 8002d3e:	f7ff bf07 	b.w	8002b50 <vListInsertEnd>
 8002d42:	bf00      	nop
 8002d44:	20000a88 	.word	0x20000a88
 8002d48:	20000968 	.word	0x20000968
 8002d4c:	20000a14 	.word	0x20000a14
 8002d50:	20000970 	.word	0x20000970
 8002d54:	2000096c 	.word	0x2000096c
 8002d58:	20000a40 	.word	0x20000a40
 8002d5c:	20000a60 	.word	0x20000a60

08002d60 <prvIdleTask>:
 8002d60:	f04f 2ae0 	mov.w	sl, #3758153728	; 0xe000e000
 8002d64:	f04f 5980 	mov.w	r9, #268435456	; 0x10000000
 8002d68:	b580      	push	{r7, lr}
 8002d6a:	4d21      	ldr	r5, [pc, #132]	; (8002df0 <prvIdleTask+0x90>)
 8002d6c:	4f21      	ldr	r7, [pc, #132]	; (8002df4 <prvIdleTask+0x94>)
 8002d6e:	4e22      	ldr	r6, [pc, #136]	; (8002df8 <prvIdleTask+0x98>)
 8002d70:	f8df 8088 	ldr.w	r8, [pc, #136]	; 8002dfc <prvIdleTask+0x9c>
 8002d74:	682b      	ldr	r3, [r5, #0]
 8002d76:	b35b      	cbz	r3, 8002dd0 <prvIdleTask+0x70>
 8002d78:	f000 fb64 	bl	8003444 <vPortEnterCritical>
 8002d7c:	68fb      	ldr	r3, [r7, #12]
 8002d7e:	68dc      	ldr	r4, [r3, #12]
 8002d80:	1d20      	adds	r0, r4, #4
 8002d82:	f7ff ff0b 	bl	8002b9c <uxListRemove>
 8002d86:	6833      	ldr	r3, [r6, #0]
 8002d88:	3b01      	subs	r3, #1
 8002d8a:	6033      	str	r3, [r6, #0]
 8002d8c:	682b      	ldr	r3, [r5, #0]
 8002d8e:	3b01      	subs	r3, #1
 8002d90:	602b      	str	r3, [r5, #0]
 8002d92:	f000 fb79 	bl	8003488 <vPortExitCritical>
 8002d96:	f104 005c 	add.w	r0, r4, #92	; 0x5c
 8002d9a:	f000 fd6b 	bl	8003874 <_reclaim_reent>
 8002d9e:	f894 30ad 	ldrb.w	r3, [r4, #173]	; 0xad
 8002da2:	b163      	cbz	r3, 8002dbe <prvIdleTask+0x5e>
 8002da4:	2b01      	cmp	r3, #1
 8002da6:	d01e      	beq.n	8002de6 <prvIdleTask+0x86>
 8002da8:	2b02      	cmp	r3, #2
 8002daa:	d0e3      	beq.n	8002d74 <prvIdleTask+0x14>
 8002dac:	f04f 0350 	mov.w	r3, #80	; 0x50
 8002db0:	f383 8811 	msr	BASEPRI, r3
 8002db4:	f3bf 8f6f 	isb	sy
 8002db8:	f3bf 8f4f 	dsb	sy
 8002dbc:	e7fe      	b.n	8002dbc <prvIdleTask+0x5c>
 8002dbe:	6b20      	ldr	r0, [r4, #48]	; 0x30
 8002dc0:	f000 fcf2 	bl	80037a8 <vPortFree>
 8002dc4:	4620      	mov	r0, r4
 8002dc6:	f000 fcef 	bl	80037a8 <vPortFree>
 8002dca:	682b      	ldr	r3, [r5, #0]
 8002dcc:	2b00      	cmp	r3, #0
 8002dce:	d1d3      	bne.n	8002d78 <prvIdleTask+0x18>
 8002dd0:	f8d8 3000 	ldr.w	r3, [r8]
 8002dd4:	2b01      	cmp	r3, #1
 8002dd6:	d9cd      	bls.n	8002d74 <prvIdleTask+0x14>
 8002dd8:	f8ca 9d04 	str.w	r9, [sl, #3332]	; 0xd04
 8002ddc:	f3bf 8f4f 	dsb	sy
 8002de0:	f3bf 8f6f 	isb	sy
 8002de4:	e7c6      	b.n	8002d74 <prvIdleTask+0x14>
 8002de6:	4620      	mov	r0, r4
 8002de8:	f000 fcde 	bl	80037a8 <vPortFree>
 8002dec:	e7c2      	b.n	8002d74 <prvIdleTask+0x14>
 8002dee:	bf00      	nop
 8002df0:	20000a04 	.word	0x20000a04
 8002df4:	20000a74 	.word	0x20000a74
 8002df8:	20000a00 	.word	0x20000a00
 8002dfc:	20000974 	.word	0x20000974

08002e00 <xTaskCreate>:
 8002e00:	e92d 47f0 	stmdb	sp!, {r4, r5, r6, r7, r8, r9, sl, lr}
 8002e04:	0096      	lsls	r6, r2, #2
 8002e06:	4607      	mov	r7, r0
 8002e08:	4630      	mov	r0, r6
 8002e0a:	460c      	mov	r4, r1
 8002e0c:	4698      	mov	r8, r3
 8002e0e:	f000 fc15 	bl	800363c <pvPortMalloc>
 8002e12:	2800      	cmp	r0, #0
 8002e14:	d055      	beq.n	8002ec2 <xTaskCreate+0xc2>
 8002e16:	4681      	mov	r9, r0
 8002e18:	20b0      	movs	r0, #176	; 0xb0
 8002e1a:	f000 fc0f 	bl	800363c <pvPortMalloc>
 8002e1e:	4605      	mov	r5, r0
 8002e20:	2800      	cmp	r0, #0
 8002e22:	d052      	beq.n	8002eca <xTaskCreate+0xca>
 8002e24:	2300      	movs	r3, #0
 8002e26:	f8c0 9030 	str.w	r9, [r0, #48]	; 0x30
 8002e2a:	f880 30ad 	strb.w	r3, [r0, #173]	; 0xad
 8002e2e:	f104 3cff 	add.w	ip, r4, #4294967295
 8002e32:	f104 011d 	add.w	r1, r4, #29
 8002e36:	f100 0e33 	add.w	lr, r0, #51	; 0x33
 8002e3a:	e001      	b.n	8002e40 <xTaskCreate+0x40>
 8002e3c:	4561      	cmp	r1, ip
 8002e3e:	d005      	beq.n	8002e4c <xTaskCreate+0x4c>
 8002e40:	f81c 4f01 	ldrb.w	r4, [ip, #1]!
 8002e44:	f80e 4f01 	strb.w	r4, [lr, #1]!
 8002e48:	2c00      	cmp	r4, #0
 8002e4a:	d1f7      	bne.n	8002e3c <xTaskCreate+0x3c>
 8002e4c:	9c08      	ldr	r4, [sp, #32]
 8002e4e:	f04f 0a00 	mov.w	sl, #0
 8002e52:	2c06      	cmp	r4, #6
 8002e54:	bf28      	it	cs
 8002e56:	2406      	movcs	r4, #6
 8002e58:	1d28      	adds	r0, r5, #4
 8002e5a:	e9c5 4a15 	strd	r4, sl, [r5, #84]	; 0x54
 8002e5e:	62ec      	str	r4, [r5, #44]	; 0x2c
 8002e60:	f885 a051 	strb.w	sl, [r5, #81]	; 0x51
 8002e64:	f7ff fe70 	bl	8002b48 <vListInitialiseItem>
 8002e68:	f1c4 0407 	rsb	r4, r4, #7
 8002e6c:	f105 0018 	add.w	r0, r5, #24
 8002e70:	f7ff fe6a 	bl	8002b48 <vListInitialiseItem>
 8002e74:	4651      	mov	r1, sl
 8002e76:	224c      	movs	r2, #76	; 0x4c
 8002e78:	61ac      	str	r4, [r5, #24]
 8002e7a:	f8c5 a0a8 	str.w	sl, [r5, #168]	; 0xa8
 8002e7e:	612d      	str	r5, [r5, #16]
 8002e80:	626d      	str	r5, [r5, #36]	; 0x24
 8002e82:	f885 a0ac 	strb.w	sl, [r5, #172]	; 0xac
 8002e86:	f105 005c 	add.w	r0, r5, #92	; 0x5c
 8002e8a:	f000 fceb 	bl	8003864 <memset>
 8002e8e:	4b12      	ldr	r3, [pc, #72]	; (8002ed8 <xTaskCreate+0xd8>)
 8002e90:	3e04      	subs	r6, #4
 8002e92:	662b      	str	r3, [r5, #96]	; 0x60
 8002e94:	f103 0468 	add.w	r4, r3, #104	; 0x68
 8002e98:	eb09 0006 	add.w	r0, r9, r6
 8002e9c:	33d0      	adds	r3, #208	; 0xd0
 8002e9e:	66ab      	str	r3, [r5, #104]	; 0x68
 8002ea0:	4642      	mov	r2, r8
 8002ea2:	4639      	mov	r1, r7
 8002ea4:	f020 0007 	bic.w	r0, r0, #7
 8002ea8:	666c      	str	r4, [r5, #100]	; 0x64
 8002eaa:	f000 faa3 	bl	80033f4 <pxPortInitialiseStack>
 8002eae:	9b09      	ldr	r3, [sp, #36]	; 0x24
 8002eb0:	6028      	str	r0, [r5, #0]
 8002eb2:	b103      	cbz	r3, 8002eb6 <xTaskCreate+0xb6>
 8002eb4:	601d      	str	r5, [r3, #0]
 8002eb6:	4628      	mov	r0, r5
 8002eb8:	f7ff fe82 	bl	8002bc0 <prvAddNewTaskToReadyList>
 8002ebc:	2001      	movs	r0, #1
 8002ebe:	e8bd 87f0 	ldmia.w	sp!, {r4, r5, r6, r7, r8, r9, sl, pc}
 8002ec2:	f04f 30ff 	mov.w	r0, #4294967295
 8002ec6:	e8bd 87f0 	ldmia.w	sp!, {r4, r5, r6, r7, r8, r9, sl, pc}
 8002eca:	4648      	mov	r0, r9
 8002ecc:	f000 fc6c 	bl	80037a8 <vPortFree>
 8002ed0:	f04f 30ff 	mov.w	r0, #4294967295
 8002ed4:	e7f3      	b.n	8002ebe <xTaskCreate+0xbe>
 8002ed6:	bf00      	nop
 8002ed8:	20003ab0 	.word	0x20003ab0

08002edc <vTaskStartScheduler>:
 8002edc:	2300      	movs	r3, #0
 8002ede:	b570      	push	{r4, r5, r6, lr}
 8002ee0:	b084      	sub	sp, #16
 8002ee2:	aa02      	add	r2, sp, #8
 8002ee4:	4668      	mov	r0, sp
 8002ee6:	a901      	add	r1, sp, #4
 8002ee8:	e9cd 3300 	strd	r3, r3, [sp]
 8002eec:	f7fd fd9e 	bl	8000a2c <vApplicationGetIdleTaskMemory>
 8002ef0:	e9dd 3201 	ldrd	r3, r2, [sp, #4]
 8002ef4:	9c00      	ldr	r4, [sp, #0]
 8002ef6:	b1bb      	cbz	r3, 8002f28 <vTaskStartScheduler+0x4c>
 8002ef8:	b16c      	cbz	r4, 8002f16 <vTaskStartScheduler+0x3a>
 8002efa:	21b0      	movs	r1, #176	; 0xb0
 8002efc:	9103      	str	r1, [sp, #12]
 8002efe:	9903      	ldr	r1, [sp, #12]
 8002f00:	29b0      	cmp	r1, #176	; 0xb0
 8002f02:	d01a      	beq.n	8002f3a <vTaskStartScheduler+0x5e>
 8002f04:	f04f 0350 	mov.w	r3, #80	; 0x50
 8002f08:	f383 8811 	msr	BASEPRI, r3
 8002f0c:	f3bf 8f6f 	isb	sy
 8002f10:	f3bf 8f4f 	dsb	sy
 8002f14:	e7fe      	b.n	8002f14 <vTaskStartScheduler+0x38>
 8002f16:	f04f 0350 	mov.w	r3, #80	; 0x50
 8002f1a:	f383 8811 	msr	BASEPRI, r3
 8002f1e:	f3bf 8f6f 	isb	sy
 8002f22:	f3bf 8f4f 	dsb	sy
 8002f26:	e7fe      	b.n	8002f26 <vTaskStartScheduler+0x4a>
 8002f28:	f04f 0350 	mov.w	r3, #80	; 0x50
 8002f2c:	f383 8811 	msr	BASEPRI, r3
 8002f30:	f3bf 8f6f 	isb	sy
 8002f34:	f3bf 8f4f 	dsb	sy
 8002f38:	e7fe      	b.n	8002f38 <vTaskStartScheduler+0x5c>
 8002f3a:	f04f 0c02 	mov.w	ip, #2
 8002f3e:	2649      	movs	r6, #73	; 0x49
 8002f40:	4621      	mov	r1, r4
 8002f42:	f102 4280 	add.w	r2, r2, #1073741824	; 0x40000000
 8002f46:	3a01      	subs	r2, #1
 8002f48:	eb03 0282 	add.w	r2, r3, r2, lsl #2
 8002f4c:	6323      	str	r3, [r4, #48]	; 0x30
 8002f4e:	4b2c      	ldr	r3, [pc, #176]	; (8003000 <vTaskStartScheduler+0x124>)
 8002f50:	f884 c0ad 	strb.w	ip, [r4, #173]	; 0xad
 8002f54:	f022 0507 	bic.w	r5, r2, #7
 8002f58:	f103 001d 	add.w	r0, r3, #29
 8002f5c:	f801 6f34 	strb.w	r6, [r1, #52]!
 8002f60:	4283      	cmp	r3, r0
 8002f62:	d005      	beq.n	8002f70 <vTaskStartScheduler+0x94>
 8002f64:	f813 2f01 	ldrb.w	r2, [r3, #1]!
 8002f68:	f801 2f01 	strb.w	r2, [r1, #1]!
 8002f6c:	2a00      	cmp	r2, #0
 8002f6e:	d1f7      	bne.n	8002f60 <vTaskStartScheduler+0x84>
 8002f70:	2600      	movs	r6, #0
 8002f72:	1d20      	adds	r0, r4, #4
 8002f74:	e9c4 6615 	strd	r6, r6, [r4, #84]	; 0x54
 8002f78:	f884 6051 	strb.w	r6, [r4, #81]	; 0x51
 8002f7c:	62e6      	str	r6, [r4, #44]	; 0x2c
 8002f7e:	f7ff fde3 	bl	8002b48 <vListInitialiseItem>
 8002f82:	f104 0018 	add.w	r0, r4, #24
 8002f86:	f7ff fddf 	bl	8002b48 <vListInitialiseItem>
 8002f8a:	2307      	movs	r3, #7
 8002f8c:	4631      	mov	r1, r6
 8002f8e:	f8c4 60a8 	str.w	r6, [r4, #168]	; 0xa8
 8002f92:	61a3      	str	r3, [r4, #24]
 8002f94:	224c      	movs	r2, #76	; 0x4c
 8002f96:	6124      	str	r4, [r4, #16]
 8002f98:	6264      	str	r4, [r4, #36]	; 0x24
 8002f9a:	f884 60ac 	strb.w	r6, [r4, #172]	; 0xac
 8002f9e:	f104 005c 	add.w	r0, r4, #92	; 0x5c
 8002fa2:	f000 fc5f 	bl	8003864 <memset>
 8002fa6:	4b17      	ldr	r3, [pc, #92]	; (8003004 <vTaskStartScheduler+0x128>)
 8002fa8:	4917      	ldr	r1, [pc, #92]	; (8003008 <vTaskStartScheduler+0x12c>)
 8002faa:	f103 0268 	add.w	r2, r3, #104	; 0x68
 8002fae:	6623      	str	r3, [r4, #96]	; 0x60
 8002fb0:	33d0      	adds	r3, #208	; 0xd0
 8002fb2:	6662      	str	r2, [r4, #100]	; 0x64
 8002fb4:	66a3      	str	r3, [r4, #104]	; 0x68
 8002fb6:	4632      	mov	r2, r6
 8002fb8:	4628      	mov	r0, r5
 8002fba:	f000 fa1b 	bl	80033f4 <pxPortInitialiseStack>
 8002fbe:	4603      	mov	r3, r0
 8002fc0:	4620      	mov	r0, r4
 8002fc2:	6023      	str	r3, [r4, #0]
 8002fc4:	f7ff fdfc 	bl	8002bc0 <prvAddNewTaskToReadyList>
 8002fc8:	f04f 0350 	mov.w	r3, #80	; 0x50
 8002fcc:	f383 8811 	msr	BASEPRI, r3
 8002fd0:	f3bf 8f6f 	isb	sy
 8002fd4:	f3bf 8f4f 	dsb	sy
 8002fd8:	f04f 34ff 	mov.w	r4, #4294967295
 8002fdc:	2101      	movs	r1, #1
 8002fde:	4b0b      	ldr	r3, [pc, #44]	; (800300c <vTaskStartScheduler+0x130>)
 8002fe0:	4a0b      	ldr	r2, [pc, #44]	; (8003010 <vTaskStartScheduler+0x134>)
 8002fe2:	681b      	ldr	r3, [r3, #0]
 8002fe4:	480b      	ldr	r0, [pc, #44]	; (8003014 <vTaskStartScheduler+0x138>)
 8002fe6:	335c      	adds	r3, #92	; 0x5c
 8002fe8:	6013      	str	r3, [r2, #0]
 8002fea:	4a0b      	ldr	r2, [pc, #44]	; (8003018 <vTaskStartScheduler+0x13c>)
 8002fec:	4b0b      	ldr	r3, [pc, #44]	; (800301c <vTaskStartScheduler+0x140>)
 8002fee:	6004      	str	r4, [r0, #0]
 8002ff0:	6011      	str	r1, [r2, #0]
 8002ff2:	601e      	str	r6, [r3, #0]
 8002ff4:	b004      	add	sp, #16
 8002ff6:	e8bd 4070 	ldmia.w	sp!, {r4, r5, r6, lr}
 8002ffa:	f000 baa7 	b.w	800354c <xPortStartScheduler>
 8002ffe:	bf00      	nop
 8003000:	08004024 	.word	0x08004024
 8003004:	20003ab0 	.word	0x20003ab0
 8003008:	08002d61 	.word	0x08002d61
 800300c:	20000968 	.word	0x20000968
 8003010:	20000224 	.word	0x20000224
 8003014:	20000a40 	.word	0x20000a40
 8003018:	20000a5c 	.word	0x20000a5c
 800301c:	20000a88 	.word	0x20000a88

08003020 <vTaskSuspendAll>:
 8003020:	4a02      	ldr	r2, [pc, #8]	; (800302c <vTaskSuspendAll+0xc>)
 8003022:	6813      	ldr	r3, [r2, #0]
 8003024:	3301      	adds	r3, #1
 8003026:	6013      	str	r3, [r2, #0]
 8003028:	4770      	bx	lr
 800302a:	bf00      	nop
 800302c:	20000a0c 	.word	0x20000a0c

08003030 <xTaskIncrementTick>:
 8003030:	e92d 4ff0 	stmdb	sp!, {r4, r5, r6, r7, r8, r9, sl, fp, lr}
 8003034:	4b4e      	ldr	r3, [pc, #312]	; (8003170 <xTaskIncrementTick+0x140>)
 8003036:	b083      	sub	sp, #12
 8003038:	681b      	ldr	r3, [r3, #0]
 800303a:	2b00      	cmp	r3, #0
 800303c:	d147      	bne.n	80030ce <xTaskIncrementTick+0x9e>
 800303e:	4b4d      	ldr	r3, [pc, #308]	; (8003174 <xTaskIncrementTick+0x144>)
 8003040:	681d      	ldr	r5, [r3, #0]
 8003042:	3501      	adds	r5, #1
 8003044:	601d      	str	r5, [r3, #0]
 8003046:	2d00      	cmp	r5, #0
 8003048:	d04f      	beq.n	80030ea <xTaskIncrementTick+0xba>
 800304a:	4b4b      	ldr	r3, [pc, #300]	; (8003178 <xTaskIncrementTick+0x148>)
 800304c:	9301      	str	r3, [sp, #4]
 800304e:	681b      	ldr	r3, [r3, #0]
 8003050:	42ab      	cmp	r3, r5
 8003052:	d861      	bhi.n	8003118 <xTaskIncrementTick+0xe8>
 8003054:	4e49      	ldr	r6, [pc, #292]	; (800317c <xTaskIncrementTick+0x14c>)
 8003056:	6833      	ldr	r3, [r6, #0]
 8003058:	681c      	ldr	r4, [r3, #0]
 800305a:	2c00      	cmp	r4, #0
 800305c:	d076      	beq.n	800314c <xTaskIncrementTick+0x11c>
 800305e:	2400      	movs	r4, #0
 8003060:	f8df 811c 	ldr.w	r8, [pc, #284]	; 8003180 <xTaskIncrementTick+0x150>
 8003064:	f8df 911c 	ldr.w	r9, [pc, #284]	; 8003184 <xTaskIncrementTick+0x154>
 8003068:	4f47      	ldr	r7, [pc, #284]	; (8003188 <xTaskIncrementTick+0x158>)
 800306a:	e023      	b.n	80030b4 <xTaskIncrementTick+0x84>
 800306c:	4650      	mov	r0, sl
 800306e:	f7ff fd95 	bl	8002b9c <uxListRemove>
 8003072:	f8db 2028 	ldr.w	r2, [fp, #40]	; 0x28
 8003076:	f10b 0018 	add.w	r0, fp, #24
 800307a:	b10a      	cbz	r2, 8003080 <xTaskIncrementTick+0x50>
 800307c:	f7ff fd8e 	bl	8002b9c <uxListRemove>
 8003080:	2201      	movs	r2, #1
 8003082:	f8db 002c 	ldr.w	r0, [fp, #44]	; 0x2c
 8003086:	683b      	ldr	r3, [r7, #0]
 8003088:	4082      	lsls	r2, r0
 800308a:	eb00 0080 	add.w	r0, r0, r0, lsl #2
 800308e:	431a      	orrs	r2, r3
 8003090:	4651      	mov	r1, sl
 8003092:	eb08 0080 	add.w	r0, r8, r0, lsl #2
 8003096:	603a      	str	r2, [r7, #0]
 8003098:	f7ff fd5a 	bl	8002b50 <vListInsertEnd>
 800309c:	f8d9 3000 	ldr.w	r3, [r9]
 80030a0:	f8db 202c 	ldr.w	r2, [fp, #44]	; 0x2c
 80030a4:	6adb      	ldr	r3, [r3, #44]	; 0x2c
 80030a6:	429a      	cmp	r2, r3
 80030a8:	bf28      	it	cs
 80030aa:	2401      	movcs	r4, #1
 80030ac:	6833      	ldr	r3, [r6, #0]
 80030ae:	681b      	ldr	r3, [r3, #0]
 80030b0:	2b00      	cmp	r3, #0
 80030b2:	d04f      	beq.n	8003154 <xTaskIncrementTick+0x124>
 80030b4:	6833      	ldr	r3, [r6, #0]
 80030b6:	68db      	ldr	r3, [r3, #12]
 80030b8:	f8d3 b00c 	ldr.w	fp, [r3, #12]
 80030bc:	f8db 2004 	ldr.w	r2, [fp, #4]
 80030c0:	f10b 0a04 	add.w	sl, fp, #4
 80030c4:	4295      	cmp	r5, r2
 80030c6:	d2d1      	bcs.n	800306c <xTaskIncrementTick+0x3c>
 80030c8:	9b01      	ldr	r3, [sp, #4]
 80030ca:	601a      	str	r2, [r3, #0]
 80030cc:	e029      	b.n	8003122 <xTaskIncrementTick+0xf2>
 80030ce:	2400      	movs	r4, #0
 80030d0:	4a2e      	ldr	r2, [pc, #184]	; (800318c <xTaskIncrementTick+0x15c>)
 80030d2:	6813      	ldr	r3, [r2, #0]
 80030d4:	3301      	adds	r3, #1
 80030d6:	6013      	str	r3, [r2, #0]
 80030d8:	4b2d      	ldr	r3, [pc, #180]	; (8003190 <xTaskIncrementTick+0x160>)
 80030da:	681b      	ldr	r3, [r3, #0]
 80030dc:	2b00      	cmp	r3, #0
 80030de:	bf0c      	ite	eq
 80030e0:	4620      	moveq	r0, r4
 80030e2:	2001      	movne	r0, #1
 80030e4:	b003      	add	sp, #12
 80030e6:	e8bd 8ff0 	ldmia.w	sp!, {r4, r5, r6, r7, r8, r9, sl, fp, pc}
 80030ea:	4b24      	ldr	r3, [pc, #144]	; (800317c <xTaskIncrementTick+0x14c>)
 80030ec:	681a      	ldr	r2, [r3, #0]
 80030ee:	6812      	ldr	r2, [r2, #0]
 80030f0:	bb1a      	cbnz	r2, 800313a <xTaskIncrementTick+0x10a>
 80030f2:	4a28      	ldr	r2, [pc, #160]	; (8003194 <xTaskIncrementTick+0x164>)
 80030f4:	6818      	ldr	r0, [r3, #0]
 80030f6:	6811      	ldr	r1, [r2, #0]
 80030f8:	6019      	str	r1, [r3, #0]
 80030fa:	4927      	ldr	r1, [pc, #156]	; (8003198 <xTaskIncrementTick+0x168>)
 80030fc:	6010      	str	r0, [r2, #0]
 80030fe:	680a      	ldr	r2, [r1, #0]
 8003100:	3201      	adds	r2, #1
 8003102:	600a      	str	r2, [r1, #0]
 8003104:	681a      	ldr	r2, [r3, #0]
 8003106:	6812      	ldr	r2, [r2, #0]
 8003108:	bb4a      	cbnz	r2, 800315e <xTaskIncrementTick+0x12e>
 800310a:	f04f 33ff 	mov.w	r3, #4294967295
 800310e:	4a1a      	ldr	r2, [pc, #104]	; (8003178 <xTaskIncrementTick+0x148>)
 8003110:	6013      	str	r3, [r2, #0]
 8003112:	9201      	str	r2, [sp, #4]
 8003114:	4613      	mov	r3, r2
 8003116:	e79a      	b.n	800304e <xTaskIncrementTick+0x1e>
 8003118:	2400      	movs	r4, #0
 800311a:	f8df 8064 	ldr.w	r8, [pc, #100]	; 8003180 <xTaskIncrementTick+0x150>
 800311e:	f8df 9064 	ldr.w	r9, [pc, #100]	; 8003184 <xTaskIncrementTick+0x154>
 8003122:	f8d9 3000 	ldr.w	r3, [r9]
 8003126:	6adb      	ldr	r3, [r3, #44]	; 0x2c
 8003128:	eb03 0383 	add.w	r3, r3, r3, lsl #2
 800312c:	009b      	lsls	r3, r3, #2
 800312e:	f858 3003 	ldr.w	r3, [r8, r3]
 8003132:	2b02      	cmp	r3, #2
 8003134:	bf28      	it	cs
 8003136:	2401      	movcs	r4, #1
 8003138:	e7ce      	b.n	80030d8 <xTaskIncrementTick+0xa8>
 800313a:	f04f 0350 	mov.w	r3, #80	; 0x50
 800313e:	f383 8811 	msr	BASEPRI, r3
 8003142:	f3bf 8f6f 	isb	sy
 8003146:	f3bf 8f4f 	dsb	sy
 800314a:	e7fe      	b.n	800314a <xTaskIncrementTick+0x11a>
 800314c:	f8df 8030 	ldr.w	r8, [pc, #48]	; 8003180 <xTaskIncrementTick+0x150>
 8003150:	f8df 9030 	ldr.w	r9, [pc, #48]	; 8003184 <xTaskIncrementTick+0x154>
 8003154:	f04f 33ff 	mov.w	r3, #4294967295
 8003158:	9a01      	ldr	r2, [sp, #4]
 800315a:	6013      	str	r3, [r2, #0]
 800315c:	e7e1      	b.n	8003122 <xTaskIncrementTick+0xf2>
 800315e:	681b      	ldr	r3, [r3, #0]
 8003160:	4a05      	ldr	r2, [pc, #20]	; (8003178 <xTaskIncrementTick+0x148>)
 8003162:	68db      	ldr	r3, [r3, #12]
 8003164:	9201      	str	r2, [sp, #4]
 8003166:	68db      	ldr	r3, [r3, #12]
 8003168:	685b      	ldr	r3, [r3, #4]
 800316a:	6013      	str	r3, [r2, #0]
 800316c:	4613      	mov	r3, r2
 800316e:	e76e      	b.n	800304e <xTaskIncrementTick+0x1e>
 8003170:	20000a0c 	.word	0x20000a0c
 8003174:	20000a88 	.word	0x20000a88
 8003178:	20000a40 	.word	0x20000a40
 800317c:	2000096c 	.word	0x2000096c
 8003180:	20000974 	.word	0x20000974
 8003184:	20000968 	.word	0x20000968
 8003188:	20000a14 	.word	0x20000a14
 800318c:	20000a08 	.word	0x20000a08
 8003190:	20000a8c 	.word	0x20000a8c
 8003194:	20000970 	.word	0x20000970
 8003198:	20000a44 	.word	0x20000a44

0800319c <xTaskResumeAll>:
 800319c:	e92d 4ff8 	stmdb	sp!, {r3, r4, r5, r6, r7, r8, r9, sl, fp, lr}
 80031a0:	4c40      	ldr	r4, [pc, #256]	; (80032a4 <xTaskResumeAll+0x108>)
 80031a2:	6823      	ldr	r3, [r4, #0]
 80031a4:	b943      	cbnz	r3, 80031b8 <xTaskResumeAll+0x1c>
 80031a6:	f04f 0350 	mov.w	r3, #80	; 0x50
 80031aa:	f383 8811 	msr	BASEPRI, r3
 80031ae:	f3bf 8f6f 	isb	sy
 80031b2:	f3bf 8f4f 	dsb	sy
 80031b6:	e7fe      	b.n	80031b6 <xTaskResumeAll+0x1a>
 80031b8:	f000 f944 	bl	8003444 <vPortEnterCritical>
 80031bc:	6823      	ldr	r3, [r4, #0]
 80031be:	3b01      	subs	r3, #1
 80031c0:	6023      	str	r3, [r4, #0]
 80031c2:	6823      	ldr	r3, [r4, #0]
 80031c4:	2b00      	cmp	r3, #0
 80031c6:	d159      	bne.n	800327c <xTaskResumeAll+0xe0>
 80031c8:	4b37      	ldr	r3, [pc, #220]	; (80032a8 <xTaskResumeAll+0x10c>)
 80031ca:	681b      	ldr	r3, [r3, #0]
 80031cc:	2b00      	cmp	r3, #0
 80031ce:	d055      	beq.n	800327c <xTaskResumeAll+0xe0>
 80031d0:	f8df a0d8 	ldr.w	sl, [pc, #216]	; 80032ac <xTaskResumeAll+0x110>
 80031d4:	f8da 3000 	ldr.w	r3, [sl]
 80031d8:	2b00      	cmp	r3, #0
 80031da:	d05f      	beq.n	800329c <xTaskResumeAll+0x100>
 80031dc:	2601      	movs	r6, #1
 80031de:	4d34      	ldr	r5, [pc, #208]	; (80032b0 <xTaskResumeAll+0x114>)
 80031e0:	f8df 80d0 	ldr.w	r8, [pc, #208]	; 80032b4 <xTaskResumeAll+0x118>
 80031e4:	4f34      	ldr	r7, [pc, #208]	; (80032b8 <xTaskResumeAll+0x11c>)
 80031e6:	f8df 90d4 	ldr.w	r9, [pc, #212]	; 80032bc <xTaskResumeAll+0x120>
 80031ea:	f8da 300c 	ldr.w	r3, [sl, #12]
 80031ee:	68dc      	ldr	r4, [r3, #12]
 80031f0:	f104 0b04 	add.w	fp, r4, #4
 80031f4:	f104 0018 	add.w	r0, r4, #24
 80031f8:	f7ff fcd0 	bl	8002b9c <uxListRemove>
 80031fc:	4658      	mov	r0, fp
 80031fe:	f7ff fccd 	bl	8002b9c <uxListRemove>
 8003202:	6ae0      	ldr	r0, [r4, #44]	; 0x2c
 8003204:	682a      	ldr	r2, [r5, #0]
 8003206:	fa06 f300 	lsl.w	r3, r6, r0
 800320a:	eb00 0080 	add.w	r0, r0, r0, lsl #2
 800320e:	4313      	orrs	r3, r2
 8003210:	4659      	mov	r1, fp
 8003212:	eb08 0080 	add.w	r0, r8, r0, lsl #2
 8003216:	602b      	str	r3, [r5, #0]
 8003218:	f7ff fc9a 	bl	8002b50 <vListInsertEnd>
 800321c:	683b      	ldr	r3, [r7, #0]
 800321e:	6ae2      	ldr	r2, [r4, #44]	; 0x2c
 8003220:	6adb      	ldr	r3, [r3, #44]	; 0x2c
 8003222:	429a      	cmp	r2, r3
 8003224:	d330      	bcc.n	8003288 <xTaskResumeAll+0xec>
 8003226:	f8c9 6000 	str.w	r6, [r9]
 800322a:	f8da 3000 	ldr.w	r3, [sl]
 800322e:	2b00      	cmp	r3, #0
 8003230:	d1db      	bne.n	80031ea <xTaskResumeAll+0x4e>
 8003232:	4b23      	ldr	r3, [pc, #140]	; (80032c0 <xTaskResumeAll+0x124>)
 8003234:	681a      	ldr	r2, [r3, #0]
 8003236:	6812      	ldr	r2, [r2, #0]
 8003238:	b35a      	cbz	r2, 8003292 <xTaskResumeAll+0xf6>
 800323a:	681a      	ldr	r2, [r3, #0]
 800323c:	4b21      	ldr	r3, [pc, #132]	; (80032c4 <xTaskResumeAll+0x128>)
 800323e:	68d2      	ldr	r2, [r2, #12]
 8003240:	68d2      	ldr	r2, [r2, #12]
 8003242:	6852      	ldr	r2, [r2, #4]
 8003244:	601a      	str	r2, [r3, #0]
 8003246:	4d20      	ldr	r5, [pc, #128]	; (80032c8 <xTaskResumeAll+0x12c>)
 8003248:	682c      	ldr	r4, [r5, #0]
 800324a:	b144      	cbz	r4, 800325e <xTaskResumeAll+0xc2>
 800324c:	2601      	movs	r6, #1
 800324e:	f7ff feef 	bl	8003030 <xTaskIncrementTick>
 8003252:	b108      	cbz	r0, 8003258 <xTaskResumeAll+0xbc>
 8003254:	f8c9 6000 	str.w	r6, [r9]
 8003258:	3c01      	subs	r4, #1
 800325a:	d1f8      	bne.n	800324e <xTaskResumeAll+0xb2>
 800325c:	602c      	str	r4, [r5, #0]
 800325e:	f8d9 3000 	ldr.w	r3, [r9]
 8003262:	b15b      	cbz	r3, 800327c <xTaskResumeAll+0xe0>
 8003264:	f04f 23e0 	mov.w	r3, #3758153728	; 0xe000e000
 8003268:	f04f 5280 	mov.w	r2, #268435456	; 0x10000000
 800326c:	f8c3 2d04 	str.w	r2, [r3, #3332]	; 0xd04
 8003270:	f3bf 8f4f 	dsb	sy
 8003274:	f3bf 8f6f 	isb	sy
 8003278:	2401      	movs	r4, #1
 800327a:	e000      	b.n	800327e <xTaskResumeAll+0xe2>
 800327c:	2400      	movs	r4, #0
 800327e:	f000 f903 	bl	8003488 <vPortExitCritical>
 8003282:	4620      	mov	r0, r4
 8003284:	e8bd 8ff8 	ldmia.w	sp!, {r3, r4, r5, r6, r7, r8, r9, sl, fp, pc}
 8003288:	f8da 3000 	ldr.w	r3, [sl]
 800328c:	2b00      	cmp	r3, #0
 800328e:	d1ac      	bne.n	80031ea <xTaskResumeAll+0x4e>
 8003290:	e7cf      	b.n	8003232 <xTaskResumeAll+0x96>
 8003292:	f04f 32ff 	mov.w	r2, #4294967295
 8003296:	4b0b      	ldr	r3, [pc, #44]	; (80032c4 <xTaskResumeAll+0x128>)
 8003298:	601a      	str	r2, [r3, #0]
 800329a:	e7d4      	b.n	8003246 <xTaskResumeAll+0xaa>
 800329c:	f8df 901c 	ldr.w	r9, [pc, #28]	; 80032bc <xTaskResumeAll+0x120>
 80032a0:	e7d1      	b.n	8003246 <xTaskResumeAll+0xaa>
 80032a2:	bf00      	nop
 80032a4:	20000a0c 	.word	0x20000a0c
 80032a8:	20000a00 	.word	0x20000a00
 80032ac:	20000a48 	.word	0x20000a48
 80032b0:	20000a14 	.word	0x20000a14
 80032b4:	20000974 	.word	0x20000974
 80032b8:	20000968 	.word	0x20000968
 80032bc:	20000a8c 	.word	0x20000a8c
 80032c0:	2000096c 	.word	0x2000096c
 80032c4:	20000a40 	.word	0x20000a40
 80032c8:	20000a08 	.word	0x20000a08

080032cc <vTaskDelay>:
 80032cc:	b508      	push	{r3, lr}
 80032ce:	b198      	cbz	r0, 80032f8 <vTaskDelay+0x2c>
 80032d0:	4b0f      	ldr	r3, [pc, #60]	; (8003310 <vTaskDelay+0x44>)
 80032d2:	6819      	ldr	r1, [r3, #0]
 80032d4:	b141      	cbz	r1, 80032e8 <vTaskDelay+0x1c>
 80032d6:	f04f 0350 	mov.w	r3, #80	; 0x50
 80032da:	f383 8811 	msr	BASEPRI, r3
 80032de:	f3bf 8f6f 	isb	sy
 80032e2:	f3bf 8f4f 	dsb	sy
 80032e6:	e7fe      	b.n	80032e6 <vTaskDelay+0x1a>
 80032e8:	681a      	ldr	r2, [r3, #0]
 80032ea:	3201      	adds	r2, #1
 80032ec:	601a      	str	r2, [r3, #0]
 80032ee:	f7ff fcf1 	bl	8002cd4 <prvAddCurrentTaskToDelayedList>
 80032f2:	f7ff ff53 	bl	800319c <xTaskResumeAll>
 80032f6:	b948      	cbnz	r0, 800330c <vTaskDelay+0x40>
 80032f8:	f04f 23e0 	mov.w	r3, #3758153728	; 0xe000e000
 80032fc:	f04f 5280 	mov.w	r2, #268435456	; 0x10000000
 8003300:	f8c3 2d04 	str.w	r2, [r3, #3332]	; 0xd04
 8003304:	f3bf 8f4f 	dsb	sy
 8003308:	f3bf 8f6f 	isb	sy
 800330c:	bd08      	pop	{r3, pc}
 800330e:	bf00      	nop
 8003310:	20000a0c 	.word	0x20000a0c

08003314 <vTaskSwitchContext>:
 8003314:	4b19      	ldr	r3, [pc, #100]	; (800337c <vTaskSwitchContext+0x68>)
 8003316:	681b      	ldr	r3, [r3, #0]
 8003318:	b11b      	cbz	r3, 8003322 <vTaskSwitchContext+0xe>
 800331a:	2201      	movs	r2, #1
 800331c:	4b18      	ldr	r3, [pc, #96]	; (8003380 <vTaskSwitchContext+0x6c>)
 800331e:	601a      	str	r2, [r3, #0]
 8003320:	4770      	bx	lr
 8003322:	4917      	ldr	r1, [pc, #92]	; (8003380 <vTaskSwitchContext+0x6c>)
 8003324:	4a17      	ldr	r2, [pc, #92]	; (8003384 <vTaskSwitchContext+0x70>)
 8003326:	600b      	str	r3, [r1, #0]
 8003328:	6813      	ldr	r3, [r2, #0]
 800332a:	fab3 f383 	clz	r3, r3
 800332e:	b2db      	uxtb	r3, r3
 8003330:	f1c3 031f 	rsb	r3, r3, #31
 8003334:	4a14      	ldr	r2, [pc, #80]	; (8003388 <vTaskSwitchContext+0x74>)
 8003336:	eb03 0383 	add.w	r3, r3, r3, lsl #2
 800333a:	0099      	lsls	r1, r3, #2
 800333c:	5850      	ldr	r0, [r2, r1]
 800333e:	eb02 0383 	add.w	r3, r2, r3, lsl #2
 8003342:	b940      	cbnz	r0, 8003356 <vTaskSwitchContext+0x42>
 8003344:	f04f 0350 	mov.w	r3, #80	; 0x50
 8003348:	f383 8811 	msr	BASEPRI, r3
 800334c:	f3bf 8f6f 	isb	sy
 8003350:	f3bf 8f4f 	dsb	sy
 8003354:	e7fe      	b.n	8003354 <vTaskSwitchContext+0x40>
 8003356:	6858      	ldr	r0, [r3, #4]
 8003358:	3108      	adds	r1, #8
 800335a:	6840      	ldr	r0, [r0, #4]
 800335c:	440a      	add	r2, r1
 800335e:	4290      	cmp	r0, r2
 8003360:	6058      	str	r0, [r3, #4]
 8003362:	bf08      	it	eq
 8003364:	6840      	ldreq	r0, [r0, #4]
 8003366:	4a09      	ldr	r2, [pc, #36]	; (800338c <vTaskSwitchContext+0x78>)
 8003368:	68c1      	ldr	r1, [r0, #12]
 800336a:	bf08      	it	eq
 800336c:	6058      	streq	r0, [r3, #4]
 800336e:	4b08      	ldr	r3, [pc, #32]	; (8003390 <vTaskSwitchContext+0x7c>)
 8003370:	6019      	str	r1, [r3, #0]
 8003372:	681b      	ldr	r3, [r3, #0]
 8003374:	335c      	adds	r3, #92	; 0x5c
 8003376:	6013      	str	r3, [r2, #0]
 8003378:	4770      	bx	lr
 800337a:	bf00      	nop
 800337c:	20000a0c 	.word	0x20000a0c
 8003380:	20000a8c 	.word	0x20000a8c
 8003384:	20000a14 	.word	0x20000a14
 8003388:	20000974 	.word	0x20000974
 800338c:	20000224 	.word	0x20000224
 8003390:	20000968 	.word	0x20000968

08003394 <prvPortStartFirstTask>:
 8003394:	4806      	ldr	r0, [pc, #24]	; (80033b0 <prvPortStartFirstTask+0x1c>)
 8003396:	6800      	ldr	r0, [r0, #0]
 8003398:	6800      	ldr	r0, [r0, #0]
 800339a:	f380 8808 	msr	MSP, r0
 800339e:	b662      	cpsie	i
 80033a0:	b661      	cpsie	f
 80033a2:	f3bf 8f4f 	dsb	sy
 80033a6:	f3bf 8f6f 	isb	sy
 80033aa:	df00      	svc	0
 80033ac:	bf00      	nop
 80033ae:	0000      	.short	0x0000
 80033b0:	e000ed08 	.word	0xe000ed08

080033b4 <prvTaskExitError>:
 80033b4:	2200      	movs	r2, #0
 80033b6:	4b0e      	ldr	r3, [pc, #56]	; (80033f0 <prvTaskExitError+0x3c>)
 80033b8:	b082      	sub	sp, #8
 80033ba:	681b      	ldr	r3, [r3, #0]
 80033bc:	9201      	str	r2, [sp, #4]
 80033be:	3301      	adds	r3, #1
 80033c0:	d008      	beq.n	80033d4 <prvTaskExitError+0x20>
 80033c2:	f04f 0350 	mov.w	r3, #80	; 0x50
 80033c6:	f383 8811 	msr	BASEPRI, r3
 80033ca:	f3bf 8f6f 	isb	sy
 80033ce:	f3bf 8f4f 	dsb	sy
 80033d2:	e7fe      	b.n	80033d2 <prvTaskExitError+0x1e>
 80033d4:	f04f 0350 	mov.w	r3, #80	; 0x50
 80033d8:	f383 8811 	msr	BASEPRI, r3
 80033dc:	f3bf 8f6f 	isb	sy
 80033e0:	f3bf 8f4f 	dsb	sy
 80033e4:	9b01      	ldr	r3, [sp, #4]
 80033e6:	2b00      	cmp	r3, #0
 80033e8:	d0fc      	beq.n	80033e4 <prvTaskExitError+0x30>
 80033ea:	b002      	add	sp, #8
 80033ec:	4770      	bx	lr
 80033ee:	bf00      	nop
 80033f0:	200001d4 	.word	0x200001d4

080033f4 <pxPortInitialiseStack>:
 80033f4:	b410      	push	{r4}
 80033f6:	f04f 7480 	mov.w	r4, #16777216	; 0x1000000
 80033fa:	4b06      	ldr	r3, [pc, #24]	; (8003414 <pxPortInitialiseStack+0x20>)
 80033fc:	f021 0101 	bic.w	r1, r1, #1
 8003400:	e940 1402 	strd	r1, r4, [r0, #-8]
 8003404:	f840 3c0c 	str.w	r3, [r0, #-12]
 8003408:	f840 2c20 	str.w	r2, [r0, #-32]
 800340c:	bc10      	pop	{r4}
 800340e:	3840      	subs	r0, #64	; 0x40
 8003410:	4770      	bx	lr
 8003412:	bf00      	nop
 8003414:	080033b5 	.word	0x080033b5
	...

08003420 <SVC_Handler>:
 8003420:	4b07      	ldr	r3, [pc, #28]	; (8003440 <pxCurrentTCBConst2>)
 8003422:	6819      	ldr	r1, [r3, #0]
 8003424:	6808      	ldr	r0, [r1, #0]
 8003426:	e8b0 0ff0 	ldmia.w	r0!, {r4, r5, r6, r7, r8, r9, sl, fp}
 800342a:	f380 8809 	msr	PSP, r0
 800342e:	f3bf 8f6f 	isb	sy
 8003432:	f04f 0000 	mov.w	r0, #0
 8003436:	f380 8811 	msr	BASEPRI, r0
 800343a:	f04e 0e0d 	orr.w	lr, lr, #13
 800343e:	4770      	bx	lr

08003440 <pxCurrentTCBConst2>:
 8003440:	20000968 	.word	0x20000968

08003444 <vPortEnterCritical>:
 8003444:	f04f 0350 	mov.w	r3, #80	; 0x50
 8003448:	f383 8811 	msr	BASEPRI, r3
 800344c:	f3bf 8f6f 	isb	sy
 8003450:	f3bf 8f4f 	dsb	sy
 8003454:	4a0b      	ldr	r2, [pc, #44]	; (8003484 <vPortEnterCritical+0x40>)
 8003456:	6813      	ldr	r3, [r2, #0]
 8003458:	3301      	adds	r3, #1
 800345a:	2b01      	cmp	r3, #1
 800345c:	6013      	str	r3, [r2, #0]
 800345e:	d000      	beq.n	8003462 <vPortEnterCritical+0x1e>
 8003460:	4770      	bx	lr
 8003462:	f04f 23e0 	mov.w	r3, #3758153728	; 0xe000e000
 8003466:	f8d3 3d04 	ldr.w	r3, [r3, #3332]	; 0xd04
 800346a:	b2db      	uxtb	r3, r3
 800346c:	2b00      	cmp	r3, #0
 800346e:	d0f7      	beq.n	8003460 <vPortEnterCritical+0x1c>
 8003470:	f04f 0350 	mov.w	r3, #80	; 0x50
 8003474:	f383 8811 	msr	BASEPRI, r3
 8003478:	f3bf 8f6f 	isb	sy
 800347c:	f3bf 8f4f 	dsb	sy
 8003480:	e7fe      	b.n	8003480 <vPortEnterCritical+0x3c>
 8003482:	bf00      	nop
 8003484:	200001d4 	.word	0x200001d4

08003488 <vPortExitCritical>:
 8003488:	4a08      	ldr	r2, [pc, #32]	; (80034ac <vPortExitCritical+0x24>)
 800348a:	6813      	ldr	r3, [r2, #0]
 800348c:	b943      	cbnz	r3, 80034a0 <vPortExitCritical+0x18>
 800348e:	f04f 0350 	mov.w	r3, #80	; 0x50
 8003492:	f383 8811 	msr	BASEPRI, r3
 8003496:	f3bf 8f6f 	isb	sy
 800349a:	f3bf 8f4f 	dsb	sy
 800349e:	e7fe      	b.n	800349e <vPortExitCritical+0x16>
 80034a0:	3b01      	subs	r3, #1
 80034a2:	6013      	str	r3, [r2, #0]
 80034a4:	b90b      	cbnz	r3, 80034aa <vPortExitCritical+0x22>
 80034a6:	f383 8811 	msr	BASEPRI, r3
 80034aa:	4770      	bx	lr
 80034ac:	200001d4 	.word	0x200001d4

080034b0 <PendSV_Handler>:
 80034b0:	f3ef 8009 	mrs	r0, PSP
 80034b4:	f3bf 8f6f 	isb	sy
 80034b8:	4b0d      	ldr	r3, [pc, #52]	; (80034f0 <pxCurrentTCBConst>)
 80034ba:	681a      	ldr	r2, [r3, #0]
 80034bc:	e920 0ff0 	stmdb	r0!, {r4, r5, r6, r7, r8, r9, sl, fp}
 80034c0:	6010      	str	r0, [r2, #0]
 80034c2:	e92d 4008 	stmdb	sp!, {r3, lr}
 80034c6:	f04f 0050 	mov.w	r0, #80	; 0x50
 80034ca:	f380 8811 	msr	BASEPRI, r0
 80034ce:	f7ff ff21 	bl	8003314 <vTaskSwitchContext>
 80034d2:	f04f 0000 	mov.w	r0, #0
 80034d6:	f380 8811 	msr	BASEPRI, r0
 80034da:	e8bd 4008 	ldmia.w	sp!, {r3, lr}
 80034de:	6819      	ldr	r1, [r3, #0]
 80034e0:	6808      	ldr	r0, [r1, #0]
 80034e2:	e8b0 0ff0 	ldmia.w	r0!, {r4, r5, r6, r7, r8, r9, sl, fp}
 80034e6:	f380 8809 	msr	PSP, r0
 80034ea:	f3bf 8f6f 	isb	sy
 80034ee:	4770      	bx	lr

080034f0 <pxCurrentTCBConst>:
 80034f0:	20000968 	.word	0x20000968

080034f4 <SysTick_Handler>:
 80034f4:	b508      	push	{r3, lr}
 80034f6:	f04f 0350 	mov.w	r3, #80	; 0x50
 80034fa:	f383 8811 	msr	BASEPRI, r3
 80034fe:	f3bf 8f6f 	isb	sy
 8003502:	f3bf 8f4f 	dsb	sy
 8003506:	f7ff fd93 	bl	8003030 <xTaskIncrementTick>
 800350a:	b128      	cbz	r0, 8003518 <SysTick_Handler+0x24>
 800350c:	f04f 23e0 	mov.w	r3, #3758153728	; 0xe000e000
 8003510:	f04f 5280 	mov.w	r2, #268435456	; 0x10000000
 8003514:	f8c3 2d04 	str.w	r2, [r3, #3332]	; 0xd04
 8003518:	2300      	movs	r3, #0
 800351a:	f383 8811 	msr	BASEPRI, r3
 800351e:	bd08      	pop	{r3, pc}

08003520 <vPortSetupTimerInterrupt>:
 8003520:	f04f 22e0 	mov.w	r2, #3758153728	; 0xe000e000
 8003524:	2300      	movs	r3, #0
 8003526:	2007      	movs	r0, #7
 8003528:	b410      	push	{r4}
 800352a:	4c06      	ldr	r4, [pc, #24]	; (8003544 <vPortSetupTimerInterrupt+0x24>)
 800352c:	6113      	str	r3, [r2, #16]
 800352e:	6193      	str	r3, [r2, #24]
 8003530:	6823      	ldr	r3, [r4, #0]
 8003532:	4905      	ldr	r1, [pc, #20]	; (8003548 <vPortSetupTimerInterrupt+0x28>)
 8003534:	bc10      	pop	{r4}
 8003536:	fba1 1303 	umull	r1, r3, r1, r3
 800353a:	099b      	lsrs	r3, r3, #6
 800353c:	3b01      	subs	r3, #1
 800353e:	6153      	str	r3, [r2, #20]
 8003540:	6110      	str	r0, [r2, #16]
 8003542:	4770      	bx	lr
 8003544:	200001c8 	.word	0x200001c8
 8003548:	10624dd3 	.word	0x10624dd3

0800354c <xPortStartScheduler>:
 800354c:	f04f 0cff 	mov.w	ip, #255	; 0xff
 8003550:	2007      	movs	r0, #7
 8003552:	b570      	push	{r4, r5, r6, lr}
 8003554:	4b35      	ldr	r3, [pc, #212]	; (800362c <xPortStartScheduler+0xe0>)
 8003556:	b084      	sub	sp, #16
 8003558:	781a      	ldrb	r2, [r3, #0]
 800355a:	4c35      	ldr	r4, [pc, #212]	; (8003630 <xPortStartScheduler+0xe4>)
 800355c:	b2d2      	uxtb	r2, r2
 800355e:	9202      	str	r2, [sp, #8]
 8003560:	f883 c000 	strb.w	ip, [r3]
 8003564:	781b      	ldrb	r3, [r3, #0]
 8003566:	4933      	ldr	r1, [pc, #204]	; (8003634 <xPortStartScheduler+0xe8>)
 8003568:	b2db      	uxtb	r3, r3
 800356a:	f88d 3007 	strb.w	r3, [sp, #7]
 800356e:	f89d 3007 	ldrb.w	r3, [sp, #7]
 8003572:	f89d 2007 	ldrb.w	r2, [sp, #7]
 8003576:	6020      	str	r0, [r4, #0]
 8003578:	f003 0350 	and.w	r3, r3, #80	; 0x50
 800357c:	0610      	lsls	r0, r2, #24
 800357e:	bf48      	it	mi
 8003580:	2206      	movmi	r2, #6
 8003582:	700b      	strb	r3, [r1, #0]
 8003584:	d510      	bpl.n	80035a8 <xPortStartScheduler+0x5c>
 8003586:	f89d 3007 	ldrb.w	r3, [sp, #7]
 800358a:	4610      	mov	r0, r2
 800358c:	005b      	lsls	r3, r3, #1
 800358e:	b2db      	uxtb	r3, r3
 8003590:	f88d 3007 	strb.w	r3, [sp, #7]
 8003594:	f89d 1007 	ldrb.w	r1, [sp, #7]
 8003598:	3a01      	subs	r2, #1
 800359a:	0609      	lsls	r1, r1, #24
 800359c:	d4f3      	bmi.n	8003586 <xPortStartScheduler+0x3a>
 800359e:	2803      	cmp	r0, #3
 80035a0:	6020      	str	r0, [r4, #0]
 80035a2:	f88d 3007 	strb.w	r3, [sp, #7]
 80035a6:	d008      	beq.n	80035ba <xPortStartScheduler+0x6e>
 80035a8:	f04f 0350 	mov.w	r3, #80	; 0x50
 80035ac:	f383 8811 	msr	BASEPRI, r3
 80035b0:	f3bf 8f6f 	isb	sy
 80035b4:	f3bf 8f4f 	dsb	sy
 80035b8:	e7fe      	b.n	80035b8 <xPortStartScheduler+0x6c>
 80035ba:	f44f 7040 	mov.w	r0, #768	; 0x300
 80035be:	f04f 23e0 	mov.w	r3, #3758153728	; 0xe000e000
 80035c2:	2500      	movs	r5, #0
 80035c4:	9a02      	ldr	r2, [sp, #8]
 80035c6:	4919      	ldr	r1, [pc, #100]	; (800362c <xPortStartScheduler+0xe0>)
 80035c8:	b2d2      	uxtb	r2, r2
 80035ca:	6020      	str	r0, [r4, #0]
 80035cc:	700a      	strb	r2, [r1, #0]
 80035ce:	f8d3 2d20 	ldr.w	r2, [r3, #3360]	; 0xd20
 80035d2:	4e19      	ldr	r6, [pc, #100]	; (8003638 <xPortStartScheduler+0xec>)
 80035d4:	f442 0270 	orr.w	r2, r2, #15728640	; 0xf00000
 80035d8:	f8c3 2d20 	str.w	r2, [r3, #3360]	; 0xd20
 80035dc:	f8d3 2d20 	ldr.w	r2, [r3, #3360]	; 0xd20
 80035e0:	f042 4270 	orr.w	r2, r2, #4026531840	; 0xf0000000
 80035e4:	f8c3 2d20 	str.w	r2, [r3, #3360]	; 0xd20
 80035e8:	f7ff ff9a 	bl	8003520 <vPortSetupTimerInterrupt>
 80035ec:	6035      	str	r5, [r6, #0]
 80035ee:	f7ff fed1 	bl	8003394 <prvPortStartFirstTask>
 80035f2:	f7ff fe8f 	bl	8003314 <vTaskSwitchContext>
 80035f6:	6833      	ldr	r3, [r6, #0]
 80035f8:	9503      	str	r5, [sp, #12]
 80035fa:	3301      	adds	r3, #1
 80035fc:	d008      	beq.n	8003610 <xPortStartScheduler+0xc4>
 80035fe:	f04f 0350 	mov.w	r3, #80	; 0x50
 8003602:	f383 8811 	msr	BASEPRI, r3
 8003606:	f3bf 8f6f 	isb	sy
 800360a:	f3bf 8f4f 	dsb	sy
 800360e:	e7fe      	b.n	800360e <xPortStartScheduler+0xc2>
 8003610:	f04f 0350 	mov.w	r3, #80	; 0x50
 8003614:	f383 8811 	msr	BASEPRI, r3
 8003618:	f3bf 8f6f 	isb	sy
 800361c:	f3bf 8f4f 	dsb	sy
 8003620:	9b03      	ldr	r3, [sp, #12]
 8003622:	2b00      	cmp	r3, #0
 8003624:	d0fc      	beq.n	8003620 <xPortStartScheduler+0xd4>
 8003626:	2000      	movs	r0, #0
 8003628:	b004      	add	sp, #16
 800362a:	bd70      	pop	{r4, r5, r6, pc}
 800362c:	e000e400 	.word	0xe000e400
 8003630:	20000a94 	.word	0x20000a94
 8003634:	20000a90 	.word	0x20000a90
 8003638:	200001d4 	.word	0x200001d4

0800363c <pvPortMalloc>:
 800363c:	e92d 41f0 	stmdb	sp!, {r4, r5, r6, r7, r8, lr}
 8003640:	4604      	mov	r4, r0
 8003642:	f7ff fced 	bl	8003020 <vTaskSuspendAll>
 8003646:	4a52      	ldr	r2, [pc, #328]	; (8003790 <pvPortMalloc+0x154>)
 8003648:	6815      	ldr	r5, [r2, #0]
 800364a:	2d00      	cmp	r5, #0
 800364c:	d06a      	beq.n	8003724 <pvPortMalloc+0xe8>
 800364e:	4b51      	ldr	r3, [pc, #324]	; (8003794 <pvPortMalloc+0x158>)
 8003650:	681e      	ldr	r6, [r3, #0]
 8003652:	4234      	tst	r4, r6
 8003654:	d12f      	bne.n	80036b6 <pvPortMalloc+0x7a>
 8003656:	b374      	cbz	r4, 80036b6 <pvPortMalloc+0x7a>
 8003658:	f104 0008 	add.w	r0, r4, #8
 800365c:	0767      	lsls	r7, r4, #29
 800365e:	bf1c      	itt	ne
 8003660:	f020 0007 	bicne.w	r0, r0, #7
 8003664:	3008      	addne	r0, #8
 8003666:	b330      	cbz	r0, 80036b6 <pvPortMalloc+0x7a>
 8003668:	f8df e12c 	ldr.w	lr, [pc, #300]	; 8003798 <pvPortMalloc+0x15c>
 800366c:	f8de c000 	ldr.w	ip, [lr]
 8003670:	4584      	cmp	ip, r0
 8003672:	d320      	bcc.n	80036b6 <pvPortMalloc+0x7a>
 8003674:	4b49      	ldr	r3, [pc, #292]	; (800379c <pvPortMalloc+0x160>)
 8003676:	461c      	mov	r4, r3
 8003678:	681b      	ldr	r3, [r3, #0]
 800367a:	e003      	b.n	8003684 <pvPortMalloc+0x48>
 800367c:	681a      	ldr	r2, [r3, #0]
 800367e:	b122      	cbz	r2, 800368a <pvPortMalloc+0x4e>
 8003680:	461c      	mov	r4, r3
 8003682:	4613      	mov	r3, r2
 8003684:	6859      	ldr	r1, [r3, #4]
 8003686:	4281      	cmp	r1, r0
 8003688:	d3f8      	bcc.n	800367c <pvPortMalloc+0x40>
 800368a:	42ab      	cmp	r3, r5
 800368c:	d013      	beq.n	80036b6 <pvPortMalloc+0x7a>
 800368e:	461f      	mov	r7, r3
 8003690:	1a0a      	subs	r2, r1, r0
 8003692:	f857 8b08 	ldr.w	r8, [r7], #8
 8003696:	2a10      	cmp	r2, #16
 8003698:	f8c4 8000 	str.w	r8, [r4]
 800369c:	d928      	bls.n	80036f0 <pvPortMalloc+0xb4>
 800369e:	1819      	adds	r1, r3, r0
 80036a0:	074c      	lsls	r4, r1, #29
 80036a2:	d00e      	beq.n	80036c2 <pvPortMalloc+0x86>
 80036a4:	f04f 0350 	mov.w	r3, #80	; 0x50
 80036a8:	f383 8811 	msr	BASEPRI, r3
 80036ac:	f3bf 8f6f 	isb	sy
 80036b0:	f3bf 8f4f 	dsb	sy
 80036b4:	e7fe      	b.n	80036b4 <pvPortMalloc+0x78>
 80036b6:	f7ff fd71 	bl	800319c <xTaskResumeAll>
 80036ba:	2700      	movs	r7, #0
 80036bc:	4638      	mov	r0, r7
 80036be:	e8bd 81f0 	ldmia.w	sp!, {r4, r5, r6, r7, r8, pc}
 80036c2:	604a      	str	r2, [r1, #4]
 80036c4:	4a35      	ldr	r2, [pc, #212]	; (800379c <pvPortMalloc+0x160>)
 80036c6:	6058      	str	r0, [r3, #4]
 80036c8:	4614      	mov	r4, r2
 80036ca:	6812      	ldr	r2, [r2, #0]
 80036cc:	4291      	cmp	r1, r2
 80036ce:	d8fb      	bhi.n	80036c8 <pvPortMalloc+0x8c>
 80036d0:	6860      	ldr	r0, [r4, #4]
 80036d2:	eb04 0800 	add.w	r8, r4, r0
 80036d6:	4541      	cmp	r1, r8
 80036d8:	d047      	beq.n	800376a <pvPortMalloc+0x12e>
 80036da:	f8d1 8004 	ldr.w	r8, [r1, #4]
 80036de:	eb01 0008 	add.w	r0, r1, r8
 80036e2:	4282      	cmp	r2, r0
 80036e4:	d04d      	beq.n	8003782 <pvPortMalloc+0x146>
 80036e6:	428c      	cmp	r4, r1
 80036e8:	600a      	str	r2, [r1, #0]
 80036ea:	bf18      	it	ne
 80036ec:	6021      	strne	r1, [r4, #0]
 80036ee:	6859      	ldr	r1, [r3, #4]
 80036f0:	482b      	ldr	r0, [pc, #172]	; (80037a0 <pvPortMalloc+0x164>)
 80036f2:	ebac 0201 	sub.w	r2, ip, r1
 80036f6:	6804      	ldr	r4, [r0, #0]
 80036f8:	f8ce 2000 	str.w	r2, [lr]
 80036fc:	42a2      	cmp	r2, r4
 80036fe:	bf38      	it	cc
 8003700:	6002      	strcc	r2, [r0, #0]
 8003702:	2200      	movs	r2, #0
 8003704:	4331      	orrs	r1, r6
 8003706:	e9c3 2100 	strd	r2, r1, [r3]
 800370a:	f7ff fd47 	bl	800319c <xTaskResumeAll>
 800370e:	077b      	lsls	r3, r7, #29
 8003710:	d0d4      	beq.n	80036bc <pvPortMalloc+0x80>
 8003712:	f04f 0350 	mov.w	r3, #80	; 0x50
 8003716:	f383 8811 	msr	BASEPRI, r3
 800371a:	f3bf 8f6f 	isb	sy
 800371e:	f3bf 8f4f 	dsb	sy
 8003722:	e7fe      	b.n	8003722 <pvPortMalloc+0xe6>
 8003724:	4b1f      	ldr	r3, [pc, #124]	; (80037a4 <pvPortMalloc+0x168>)
 8003726:	0759      	lsls	r1, r3, #29
 8003728:	d118      	bne.n	800375c <pvPortMalloc+0x120>
 800372a:	4619      	mov	r1, r3
 800372c:	f503 5540 	add.w	r5, r3, #12288	; 0x3000
 8003730:	f04f 4600 	mov.w	r6, #2147483648	; 0x80000000
 8003734:	3d08      	subs	r5, #8
 8003736:	f025 0507 	bic.w	r5, r5, #7
 800373a:	6015      	str	r5, [r2, #0]
 800373c:	4a18      	ldr	r2, [pc, #96]	; (80037a0 <pvPortMalloc+0x164>)
 800373e:	1aeb      	subs	r3, r5, r3
 8003740:	6013      	str	r3, [r2, #0]
 8003742:	4a15      	ldr	r2, [pc, #84]	; (8003798 <pvPortMalloc+0x15c>)
 8003744:	4815      	ldr	r0, [pc, #84]	; (800379c <pvPortMalloc+0x160>)
 8003746:	6013      	str	r3, [r2, #0]
 8003748:	4a12      	ldr	r2, [pc, #72]	; (8003794 <pvPortMalloc+0x158>)
 800374a:	6016      	str	r6, [r2, #0]
 800374c:	2200      	movs	r2, #0
 800374e:	e9c0 1200 	strd	r1, r2, [r0]
 8003752:	e9c5 2200 	strd	r2, r2, [r5]
 8003756:	e9c1 5300 	strd	r5, r3, [r1]
 800375a:	e77a      	b.n	8003652 <pvPortMalloc+0x16>
 800375c:	1dd9      	adds	r1, r3, #7
 800375e:	f021 0107 	bic.w	r1, r1, #7
 8003762:	f503 5540 	add.w	r5, r3, #12288	; 0x3000
 8003766:	460b      	mov	r3, r1
 8003768:	e7e2      	b.n	8003730 <pvPortMalloc+0xf4>
 800376a:	6849      	ldr	r1, [r1, #4]
 800376c:	eb00 0801 	add.w	r8, r0, r1
 8003770:	eb04 0108 	add.w	r1, r4, r8
 8003774:	428a      	cmp	r2, r1
 8003776:	f8c4 8004 	str.w	r8, [r4, #4]
 800377a:	d001      	beq.n	8003780 <pvPortMalloc+0x144>
 800377c:	6022      	str	r2, [r4, #0]
 800377e:	e7b6      	b.n	80036ee <pvPortMalloc+0xb2>
 8003780:	4621      	mov	r1, r4
 8003782:	42aa      	cmp	r2, r5
 8003784:	d0af      	beq.n	80036e6 <pvPortMalloc+0xaa>
 8003786:	6850      	ldr	r0, [r2, #4]
 8003788:	6812      	ldr	r2, [r2, #0]
 800378a:	4440      	add	r0, r8
 800378c:	6048      	str	r0, [r1, #4]
 800378e:	e7aa      	b.n	80036e6 <pvPortMalloc+0xaa>
 8003790:	20000a98 	.word	0x20000a98
 8003794:	20003a9c 	.word	0x20003a9c
 8003798:	20003aa0 	.word	0x20003aa0
 800379c:	20003aa8 	.word	0x20003aa8
 80037a0:	20003aa4 	.word	0x20003aa4
 80037a4:	20000a9c 	.word	0x20000a9c

080037a8 <vPortFree>:
 80037a8:	b1d0      	cbz	r0, 80037e0 <vPortFree+0x38>
 80037aa:	4a2a      	ldr	r2, [pc, #168]	; (8003854 <vPortFree+0xac>)
 80037ac:	f850 3c04 	ldr.w	r3, [r0, #-4]
 80037b0:	6812      	ldr	r2, [r2, #0]
 80037b2:	4213      	tst	r3, r2
 80037b4:	d00b      	beq.n	80037ce <vPortFree+0x26>
 80037b6:	f850 1c08 	ldr.w	r1, [r0, #-8]
 80037ba:	b191      	cbz	r1, 80037e2 <vPortFree+0x3a>
 80037bc:	f04f 0350 	mov.w	r3, #80	; 0x50
 80037c0:	f383 8811 	msr	BASEPRI, r3
 80037c4:	f3bf 8f6f 	isb	sy
 80037c8:	f3bf 8f4f 	dsb	sy
 80037cc:	e7fe      	b.n	80037cc <vPortFree+0x24>
 80037ce:	f04f 0350 	mov.w	r3, #80	; 0x50
 80037d2:	f383 8811 	msr	BASEPRI, r3
 80037d6:	f3bf 8f6f 	isb	sy
 80037da:	f3bf 8f4f 	dsb	sy
 80037de:	e7fe      	b.n	80037de <vPortFree+0x36>
 80037e0:	4770      	bx	lr
 80037e2:	b510      	push	{r4, lr}
 80037e4:	ea23 0302 	bic.w	r3, r3, r2
 80037e8:	b082      	sub	sp, #8
 80037ea:	f840 3c04 	str.w	r3, [r0, #-4]
 80037ee:	4c1a      	ldr	r4, [pc, #104]	; (8003858 <vPortFree+0xb0>)
 80037f0:	9001      	str	r0, [sp, #4]
 80037f2:	f7ff fc15 	bl	8003020 <vTaskSuspendAll>
 80037f6:	9801      	ldr	r0, [sp, #4]
 80037f8:	6822      	ldr	r2, [r4, #0]
 80037fa:	f850 1c04 	ldr.w	r1, [r0, #-4]
 80037fe:	4b17      	ldr	r3, [pc, #92]	; (800385c <vPortFree+0xb4>)
 8003800:	440a      	add	r2, r1
 8003802:	3808      	subs	r0, #8
 8003804:	6022      	str	r2, [r4, #0]
 8003806:	461a      	mov	r2, r3
 8003808:	681b      	ldr	r3, [r3, #0]
 800380a:	4298      	cmp	r0, r3
 800380c:	d8fb      	bhi.n	8003806 <vPortFree+0x5e>
 800380e:	6854      	ldr	r4, [r2, #4]
 8003810:	eb02 0e04 	add.w	lr, r2, r4
 8003814:	4570      	cmp	r0, lr
 8003816:	d00c      	beq.n	8003832 <vPortFree+0x8a>
 8003818:	eb00 0c01 	add.w	ip, r0, r1
 800381c:	4563      	cmp	r3, ip
 800381e:	d010      	beq.n	8003842 <vPortFree+0x9a>
 8003820:	4282      	cmp	r2, r0
 8003822:	6003      	str	r3, [r0, #0]
 8003824:	bf18      	it	ne
 8003826:	6010      	strne	r0, [r2, #0]
 8003828:	b002      	add	sp, #8
 800382a:	e8bd 4010 	ldmia.w	sp!, {r4, lr}
 800382e:	f7ff bcb5 	b.w	800319c <xTaskResumeAll>
 8003832:	4421      	add	r1, r4
 8003834:	1850      	adds	r0, r2, r1
 8003836:	4283      	cmp	r3, r0
 8003838:	6051      	str	r1, [r2, #4]
 800383a:	d001      	beq.n	8003840 <vPortFree+0x98>
 800383c:	6013      	str	r3, [r2, #0]
 800383e:	e7f3      	b.n	8003828 <vPortFree+0x80>
 8003840:	4610      	mov	r0, r2
 8003842:	4c07      	ldr	r4, [pc, #28]	; (8003860 <vPortFree+0xb8>)
 8003844:	6824      	ldr	r4, [r4, #0]
 8003846:	42a3      	cmp	r3, r4
 8003848:	d0ea      	beq.n	8003820 <vPortFree+0x78>
 800384a:	cb18      	ldmia	r3, {r3, r4}
 800384c:	4421      	add	r1, r4
 800384e:	6041      	str	r1, [r0, #4]
 8003850:	e7e6      	b.n	8003820 <vPortFree+0x78>
 8003852:	bf00      	nop
 8003854:	20003a9c 	.word	0x20003a9c
 8003858:	20003aa0 	.word	0x20003aa0
 800385c:	20003aa8 	.word	0x20003aa8
 8003860:	20000a98 	.word	0x20000a98

08003864 <memset>:
 8003864:	4603      	mov	r3, r0
 8003866:	4402      	add	r2, r0
 8003868:	4293      	cmp	r3, r2
 800386a:	d100      	bne.n	800386e <memset+0xa>
 800386c:	4770      	bx	lr
 800386e:	f803 1b01 	strb.w	r1, [r3], #1
 8003872:	e7f9      	b.n	8003868 <memset+0x4>

08003874 <_reclaim_reent>:
 8003874:	4b29      	ldr	r3, [pc, #164]	; (800391c <_reclaim_reent+0xa8>)
 8003876:	b570      	push	{r4, r5, r6, lr}
 8003878:	681b      	ldr	r3, [r3, #0]
 800387a:	4604      	mov	r4, r0
 800387c:	4283      	cmp	r3, r0
 800387e:	d04b      	beq.n	8003918 <_reclaim_reent+0xa4>
 8003880:	69c3      	ldr	r3, [r0, #28]
 8003882:	b143      	cbz	r3, 8003896 <_reclaim_reent+0x22>
 8003884:	68db      	ldr	r3, [r3, #12]
 8003886:	2b00      	cmp	r3, #0
 8003888:	d144      	bne.n	8003914 <_reclaim_reent+0xa0>
 800388a:	69e3      	ldr	r3, [r4, #28]
 800388c:	6819      	ldr	r1, [r3, #0]
 800388e:	b111      	cbz	r1, 8003896 <_reclaim_reent+0x22>
 8003890:	4620      	mov	r0, r4
 8003892:	f000 f879 	bl	8003988 <_free_r>
 8003896:	6961      	ldr	r1, [r4, #20]
 8003898:	b111      	cbz	r1, 80038a0 <_reclaim_reent+0x2c>
 800389a:	4620      	mov	r0, r4
 800389c:	f000 f874 	bl	8003988 <_free_r>
 80038a0:	69e1      	ldr	r1, [r4, #28]
 80038a2:	b111      	cbz	r1, 80038aa <_reclaim_reent+0x36>
 80038a4:	4620      	mov	r0, r4
 80038a6:	f000 f86f 	bl	8003988 <_free_r>
 80038aa:	6b21      	ldr	r1, [r4, #48]	; 0x30
 80038ac:	b111      	cbz	r1, 80038b4 <_reclaim_reent+0x40>
 80038ae:	4620      	mov	r0, r4
 80038b0:	f000 f86a 	bl	8003988 <_free_r>
 80038b4:	6b61      	ldr	r1, [r4, #52]	; 0x34
 80038b6:	b111      	cbz	r1, 80038be <_reclaim_reent+0x4a>
 80038b8:	4620      	mov	r0, r4
 80038ba:	f000 f865 	bl	8003988 <_free_r>
 80038be:	6ba1      	ldr	r1, [r4, #56]	; 0x38
 80038c0:	b111      	cbz	r1, 80038c8 <_reclaim_reent+0x54>
 80038c2:	4620      	mov	r0, r4
 80038c4:	f000 f860 	bl	8003988 <_free_r>
 80038c8:	6ca1      	ldr	r1, [r4, #72]	; 0x48
 80038ca:	b111      	cbz	r1, 80038d2 <_reclaim_reent+0x5e>
 80038cc:	4620      	mov	r0, r4
 80038ce:	f000 f85b 	bl	8003988 <_free_r>
 80038d2:	6c61      	ldr	r1, [r4, #68]	; 0x44
 80038d4:	b111      	cbz	r1, 80038dc <_reclaim_reent+0x68>
 80038d6:	4620      	mov	r0, r4
 80038d8:	f000 f856 	bl	8003988 <_free_r>
 80038dc:	6ae1      	ldr	r1, [r4, #44]	; 0x2c
 80038de:	b111      	cbz	r1, 80038e6 <_reclaim_reent+0x72>
 80038e0:	4620      	mov	r0, r4
 80038e2:	f000 f851 	bl	8003988 <_free_r>
 80038e6:	6a23      	ldr	r3, [r4, #32]
 80038e8:	b1b3      	cbz	r3, 8003918 <_reclaim_reent+0xa4>
 80038ea:	4620      	mov	r0, r4
 80038ec:	e8bd 4070 	ldmia.w	sp!, {r4, r5, r6, lr}
 80038f0:	4718      	bx	r3
 80038f2:	5949      	ldr	r1, [r1, r5]
 80038f4:	b941      	cbnz	r1, 8003908 <_reclaim_reent+0x94>
 80038f6:	3504      	adds	r5, #4
 80038f8:	69e3      	ldr	r3, [r4, #28]
 80038fa:	2d80      	cmp	r5, #128	; 0x80
 80038fc:	68d9      	ldr	r1, [r3, #12]
 80038fe:	d1f8      	bne.n	80038f2 <_reclaim_reent+0x7e>
 8003900:	4620      	mov	r0, r4
 8003902:	f000 f841 	bl	8003988 <_free_r>
 8003906:	e7c0      	b.n	800388a <_reclaim_reent+0x16>
 8003908:	680e      	ldr	r6, [r1, #0]
 800390a:	4620      	mov	r0, r4
 800390c:	f000 f83c 	bl	8003988 <_free_r>
 8003910:	4631      	mov	r1, r6
 8003912:	e7ef      	b.n	80038f4 <_reclaim_reent+0x80>
 8003914:	2500      	movs	r5, #0
 8003916:	e7ef      	b.n	80038f8 <_reclaim_reent+0x84>
 8003918:	bd70      	pop	{r4, r5, r6, pc}
 800391a:	bf00      	nop
 800391c:	20000224 	.word	0x20000224

08003920 <__libc_init_array>:
 8003920:	b570      	push	{r4, r5, r6, lr}
 8003922:	2600      	movs	r6, #0
 8003924:	4d0c      	ldr	r5, [pc, #48]	; (8003958 <__libc_init_array+0x38>)
 8003926:	4c0d      	ldr	r4, [pc, #52]	; (800395c <__libc_init_array+0x3c>)
 8003928:	1b64      	subs	r4, r4, r5
 800392a:	10a4      	asrs	r4, r4, #2
 800392c:	42a6      	cmp	r6, r4
 800392e:	d109      	bne.n	8003944 <__libc_init_array+0x24>
 8003930:	f000 f87e 	bl	8003a30 <_init>
 8003934:	2600      	movs	r6, #0
 8003936:	4d0a      	ldr	r5, [pc, #40]	; (8003960 <__libc_init_array+0x40>)
 8003938:	4c0a      	ldr	r4, [pc, #40]	; (8003964 <__libc_init_array+0x44>)
 800393a:	1b64      	subs	r4, r4, r5
 800393c:	10a4      	asrs	r4, r4, #2
 800393e:	42a6      	cmp	r6, r4
 8003940:	d105      	bne.n	800394e <__libc_init_array+0x2e>
 8003942:	bd70      	pop	{r4, r5, r6, pc}
 8003944:	f855 3b04 	ldr.w	r3, [r5], #4
 8003948:	4798      	blx	r3
 800394a:	3601      	adds	r6, #1
 800394c:	e7ee      	b.n	800392c <__libc_init_array+0xc>
 800394e:	f855 3b04 	ldr.w	r3, [r5], #4
 8003952:	4798      	blx	r3
 8003954:	3601      	adds	r6, #1
 8003956:	e7f2      	b.n	800393e <__libc_init_array+0x1e>
 8003958:	0800402c 	.word	0x0800402c
 800395c:	0800402c 	.word	0x0800402c
 8003960:	0800402c 	.word	0x0800402c
 8003964:	08004030 	.word	0x08004030

08003968 <__retarget_lock_acquire_recursive>:
 8003968:	4770      	bx	lr

0800396a <__retarget_lock_release_recursive>:
 800396a:	4770      	bx	lr

0800396c <memcpy>:
 800396c:	440a      	add	r2, r1
 800396e:	4291      	cmp	r1, r2
 8003970:	f100 33ff 	add.w	r3, r0, #4294967295
 8003974:	d100      	bne.n	8003978 <memcpy+0xc>
 8003976:	4770      	bx	lr
 8003978:	b510      	push	{r4, lr}
 800397a:	f811 4b01 	ldrb.w	r4, [r1], #1
 800397e:	4291      	cmp	r1, r2
 8003980:	f803 4f01 	strb.w	r4, [r3, #1]!
 8003984:	d1f9      	bne.n	800397a <memcpy+0xe>
 8003986:	bd10      	pop	{r4, pc}

08003988 <_free_r>:
 8003988:	b538      	push	{r3, r4, r5, lr}
 800398a:	4605      	mov	r5, r0
 800398c:	2900      	cmp	r1, #0
 800398e:	d040      	beq.n	8003a12 <_free_r+0x8a>
 8003990:	f851 3c04 	ldr.w	r3, [r1, #-4]
 8003994:	1f0c      	subs	r4, r1, #4
 8003996:	2b00      	cmp	r3, #0
 8003998:	bfb8      	it	lt
 800399a:	18e4      	addlt	r4, r4, r3
 800399c:	f000 f83c 	bl	8003a18 <__malloc_lock>
 80039a0:	4a1c      	ldr	r2, [pc, #112]	; (8003a14 <_free_r+0x8c>)
 80039a2:	6813      	ldr	r3, [r2, #0]
 80039a4:	b933      	cbnz	r3, 80039b4 <_free_r+0x2c>
 80039a6:	6063      	str	r3, [r4, #4]
 80039a8:	6014      	str	r4, [r2, #0]
 80039aa:	4628      	mov	r0, r5
 80039ac:	e8bd 4038 	ldmia.w	sp!, {r3, r4, r5, lr}
 80039b0:	f000 b838 	b.w	8003a24 <__malloc_unlock>
 80039b4:	42a3      	cmp	r3, r4
 80039b6:	d908      	bls.n	80039ca <_free_r+0x42>
 80039b8:	6820      	ldr	r0, [r4, #0]
 80039ba:	1821      	adds	r1, r4, r0
 80039bc:	428b      	cmp	r3, r1
 80039be:	bf01      	itttt	eq
 80039c0:	6819      	ldreq	r1, [r3, #0]
 80039c2:	685b      	ldreq	r3, [r3, #4]
 80039c4:	1809      	addeq	r1, r1, r0
 80039c6:	6021      	streq	r1, [r4, #0]
 80039c8:	e7ed      	b.n	80039a6 <_free_r+0x1e>
 80039ca:	461a      	mov	r2, r3
 80039cc:	685b      	ldr	r3, [r3, #4]
 80039ce:	b10b      	cbz	r3, 80039d4 <_free_r+0x4c>
 80039d0:	42a3      	cmp	r3, r4
 80039d2:	d9fa      	bls.n	80039ca <_free_r+0x42>
 80039d4:	6811      	ldr	r1, [r2, #0]
 80039d6:	1850      	adds	r0, r2, r1
 80039d8:	42a0      	cmp	r0, r4
 80039da:	d10b      	bne.n	80039f4 <_free_r+0x6c>
 80039dc:	6820      	ldr	r0, [r4, #0]
 80039de:	4401      	add	r1, r0
 80039e0:	1850      	adds	r0, r2, r1
 80039e2:	4283      	cmp	r3, r0
 80039e4:	6011      	str	r1, [r2, #0]
 80039e6:	d1e0      	bne.n	80039aa <_free_r+0x22>
 80039e8:	6818      	ldr	r0, [r3, #0]
 80039ea:	685b      	ldr	r3, [r3, #4]
 80039ec:	4408      	add	r0, r1
 80039ee:	6010      	str	r0, [r2, #0]
 80039f0:	6053      	str	r3, [r2, #4]
 80039f2:	e7da      	b.n	80039aa <_free_r+0x22>
 80039f4:	d902      	bls.n	80039fc <_free_r+0x74>
 80039f6:	230c      	movs	r3, #12
 80039f8:	602b      	str	r3, [r5, #0]
 80039fa:	e7d6      	b.n	80039aa <_free_r+0x22>
 80039fc:	6820      	ldr	r0, [r4, #0]
 80039fe:	1821      	adds	r1, r4, r0
 8003a00:	428b      	cmp	r3, r1
 8003a02:	bf01      	itttt	eq
 8003a04:	6819      	ldreq	r1, [r3, #0]
 8003a06:	685b      	ldreq	r3, [r3, #4]
 8003a08:	1809      	addeq	r1, r1, r0
 8003a0a:	6021      	streq	r1, [r4, #0]
 8003a0c:	6063      	str	r3, [r4, #4]
 8003a0e:	6054      	str	r4, [r2, #4]
 8003a10:	e7cb      	b.n	80039aa <_free_r+0x22>
 8003a12:	bd38      	pop	{r3, r4, r5, pc}
 8003a14:	20003bec 	.word	0x20003bec

08003a18 <__malloc_lock>:
 8003a18:	4801      	ldr	r0, [pc, #4]	; (8003a20 <__malloc_lock+0x8>)
 8003a1a:	f7ff bfa5 	b.w	8003968 <__retarget_lock_acquire_recursive>
 8003a1e:	bf00      	nop
 8003a20:	20003be8 	.word	0x20003be8

08003a24 <__malloc_unlock>:
 8003a24:	4801      	ldr	r0, [pc, #4]	; (8003a2c <__malloc_unlock+0x8>)
 8003a26:	f7ff bfa0 	b.w	800396a <__retarget_lock_release_recursive>
 8003a2a:	bf00      	nop
 8003a2c:	20003be8 	.word	0x20003be8

08003a30 <_init>:
 8003a30:	b5f8      	push	{r3, r4, r5, r6, r7, lr}
 8003a32:	bf00      	nop
 8003a34:	bcf8      	pop	{r3, r4, r5, r6, r7}
 8003a36:	bc08      	pop	{r3}
 8003a38:	469e      	mov	lr, r3
 8003a3a:	4770      	bx	lr

08003a3c <_fini>:
 8003a3c:	b5f8      	push	{r3, r4, r5, r6, r7, lr}
 8003a3e:	bf00      	nop
 8003a40:	bcf8      	pop	{r3, r4, r5, r6, r7}
 8003a42:	bc08      	pop	{r3}
 8003a44:	469e      	mov	lr, r3
 8003a46:	4770      	bx	lr
